(dp1
S'output'
p2
S"<type 'exceptions.SyntaxError'> invalid syntax (picture.html, line 108)"
p3
sS'layer'
p4
S'/home/anu/Desktop/M12/ssad m12/web2py/applications/PhotoUpload/views/default/picture.html'
p5
sS'code'
p6
S'response.write(\'<!DOCTYPE html>\\n<!-- paulirish.com/2008/conditional-stylesheets-vs-css-hacks-answer-neither/ -->\\n<!--[if lt IE 7]><html class="ie ie6 ie-lte9 ie-lte8 ie-lte7 no-js" lang="\', escape=False)\nresponse.write(T.accepted_language or \'en\')\nresponse.write(\'"> <![endif]-->\\n<!--[if IE 7]><html class="ie ie7 ie-lte9 ie-lte8 ie-lte7 no-js" lang="\', escape=False)\nresponse.write(T.accepted_language or \'en\')\nresponse.write(\'"> <![endif]-->\\n<!--[if IE 8]><html class="ie ie8 ie-lte9 ie-lte8 no-js" lang="\', escape=False)\nresponse.write(T.accepted_language or \'en\')\nresponse.write(\'"> <![endif]-->\\n<!--[if IE 9]><html class="ie9 ie-lte9 no-js" lang="\', escape=False)\nresponse.write(T.accepted_language or \'en\')\nresponse.write(\'"> <![endif]-->\\n<!--[if (gt IE 9)|!(IE)]><!--> <html class="no-js" lang="\', escape=False)\nresponse.write(T.accepted_language or \'en\')\nresponse.write(\'"> <!--<![endif]-->\\n<head>\\n  <meta charset="utf-8" />\\n  <style>\\n  body{\\n      font-family:"Trebuchet MS", "Myriad Pro", Arial, sans-serif;\\n      font-size:14px;\\n      background:#f4f4f4 url(/PhotoUpload/static/images/bg.jpg) no-repeat top left !important;\\n      color:#333;\\n  }\\n  #gallery{\\n  width:900px;\\n  margin:0px auto;\\n  margin-top:20px;\\n  height:400px;\\n  overflow:auto;\\n  border-radius:5px;\\n  padding:10px;\\n  z-index:10;\\n}\\n#galleryOpacity{\\n  background:#fff;\\n  width:920px;\\n  box-shadow:1px 1px 7px #000 inset;\\n  height:420px;\\n  margin:-10px 0px 0px -10px;\\n  position:absolute;\\n  opacity:0.7;\\n  z-index:-1;\\n  border-radius:5px;\\n}\\n.button{\\n  background: #6FBEFF;\\n  width:110px;\\n  padding:10px;\\n  padding-top:7px;\\n  text-align:center;\\n  border-radius:5px;\\n  border:2px solid #2FA2FF;\\n  font-size:15px;\\n  text-shadow:none;\\n  color:white;\\n  cursor:pointer;\\n}\\n.imageItem{\\n  width:110px;\\n  height:110px;\\n  cursor:pointer;\\n  float:left;\\n  z-index:0;\\n  margin:10px;\\n}\\n.imageItem img{\\n  width:100%;\\n  height:100%;\\n  padding:5px;\\n  border:1px solid #ccc;\\n  opacity:0.8;\\n}\\n.imageItem img:hover {\\n  -moz-box-shadow: 1px 1px 5px #999;\\n  -webkit-box-shadow: 1px 1px 5px #999;\\n  box-shadow: 1px 1px 5px #999;\\n  opacity:1;\\n}\\n.likes-icon{\\n    margin-left:10px;\\n    background: url(\', escape=False)\nresponse.write(URL(\'static\',\'images/like.jpg\'))\nresponse.write(\') no-repeat;\\n    padding-left:24px;\\n    float:left;\\n}\\n.comments-icon{\\n    margin-left:10px;\\n    background: url(\', escape=False)\nresponse.write(URL(\'static\',\'images/comment.gif\'))\nresponse.write(\') no-repeat;\\n    padding-left:24px;\\n    float:right;\\n}\\n  </style>\\n  <!-- www.phpied.com/conditional-comments-block-downloads/ -->\\n  <!-- Always force latest IE rendering engine\\n       (even in intranet) & Chrome Frame\\n       Remove this if you use the .htaccess -->\\n  <!--[if IE]>\\n    <meta http-equiv="X-UA-Compatible" content="IE=edge\', escape=False)\nresponse.write(not request.is_local and \',chrome=1\' or \'\')\nresponse.write(\'">\\n  <![endif]-->\\n  \\n  <title>\', escape=False)\nresponse.write(response.title or request.application)\nresponse.write(\'</title>\\n  \\n  <!-- http://dev.w3.org/html5/markup/meta.name.html -->\\n  <meta name="application-name" content="\', escape=False)\nresponse.write(request.application)\nresponse.write(\'" />\\n  \\n  <!-- Speaking of Google, don\\\'t forget to set your site up:\\n       http://google.com/webmasters -->\\n  <meta name="google-site-verification" content="" />\\n\\n  <!--  Mobile Viewport Fix\\n      j.mp/mobileviewport & davidbcalhoun.com/2010/viewport-metatag\\n      device-width: Occupy full width of the screen in its current orientation\\n      initial-scale = 1.0 retains dimensions instead of zooming out if page height > device height\\n      user-scalable = yes allows the user to zoom in -->\\n  <meta name="viewport" content="width=device-width, initial-scale=1.0, user-scalable=yes">\\n  \\n  <!-- Place favicon.ico and apple-touch-icon.png in the root of your domain and delete these references -->\\n  <link rel="shortcut icon" href="\', escape=False)\nresponse.write(URL(\'static\',\'favicon.ico\'))\nresponse.write(\'" type="image/x-icon">\\n  <link rel="apple-touch-icon" href="\', escape=False)\nresponse.write(URL(\'static\',\'favicon.png\'))\nresponse.write(\'">\\n\\n  <!-- All JavaScript at the bottom, except for Modernizr which enables \\n       HTML5 elements & feature detects -->\\n  <script src="\', escape=False)\nresponse.write(URL(\'static\',\'js/modernizr.custom.js\'))\nresponse.write(\'"></script>  \\n\\n  <!-- include stylesheets -->\\n  \', escape=False)\nresponse.files.append(URL(\'static\',\'css/skeleton.css\'))\nresponse.files.append(URL(\'static\',\'css/web2py.css\'))\nif response.menu:\n    response.files.append(URL(\'static\',\'css/superfish.css\'))\n    response.files.append(URL(\'static\',\'js/superfish.js\'))\n    pass\nresponse.write(\'\\n\\n  \', escape=False)\nresponse.write(\'<script type="text/javascript"><!--\\n    // These variables are used by the web2py_ajax_init function in web2py_ajax.js (which is loaded below).\\n    var w2p_ajax_confirm_message = "\', escape=False)\nresponse.write(T(\'Are you sure you want to delete this object?\'))\nresponse.write(\'";\\n    var w2p_ajax_date_format = "\', escape=False)\nresponse.write(T(\'%Y-%m-%d\'))\nresponse.write(\'";\\n    var w2p_ajax_datetime_format = "\', escape=False)\nresponse.write(T(\'%Y-%m-%d %H:%M:%S\'))\nresponse.write(\'";\\n    //--></script>\\n\', escape=False)\nresponse.files.insert(0,URL(\'static\',\'js/jquery.js\'))\nresponse.files.insert(1,URL(\'static\',\'css/calendar.css\'))\nresponse.files.insert(2,URL(\'static\',\'js/calendar.js\'))\nresponse.files.insert(3,URL(\'static\',\'js/web2py.js\'))\nresponse.include_meta()\nresponse.include_files()\nresponse.write(\'\\n\', escape=False)\nresponse.write(\'\\n\\n  \', escape=False)\nif response.menu:\n    response.write(\'\\n  <script type="text/javascript">\\n    jQuery(function(){ jQuery(\\\'ul.sf-menu\\\').supersubs({minWidth:12,maxWidth:30,extraWidth:3}).superfish(); });\\n  </script>\\n  \', escape=False)\n    pass\nresponse.write(\'\\n\\n  \', escape=False)\n# using sidebars need to know what sidebar you want to use\nleft_sidebar_enabled = False#globals().get(\'left_sidebar_enabled\',False)\nright_sidebar_enabled = False#globals().get(\'right_sidebar_enabled\',False)\nmiddle_columns = {0:\'sixteen\',1:\'twelve\',2:\'eight\'}[\n(left_sidebar_enabled and 1 or 0)+(right_sidebar_enabled and 1 or 0)]\nresponse.write(\'\\n\\n  <script type="text/javascript" src="\', escape=False)\nresponse.write(URL(\'static\',\'fancybox/lib/jquery.mousewheel-3.0.6.pack.js\'))\nresponse.write(\'"></script>\\n\\n    <!-- Add fancyBox main JS and CSS files -->\\n    <script type="text/javascript" src="\', escape=False)\nresponse.write(URL(\'static\',\'fancybox/source/jquery.fancybox.js\'))\nresponse.write(\'"></script>\\n    <link rel="stylesheet" type="text/css" href="\', escape=False)\nresponse.write(URL(\'static\',\'fancybox/source/jquery.fancybox.css\'))\nresponse.write(\'" media="screen" />\\n    <link rel="stylesheet" type="text/css" href="\', escape=False)\nresponse.write(URL(\'static\',\'fancybox/source/helpers/jquery.fancybox-thumbs.css\'))\nresponse.write(\'" />\\n    <script type="text/javascript" src="\', escape=False)\nresponse.write(URL(\'static\',\'fancybox/source/helpers/jquery.fancybox-thumbs.js\'))\nresponse.write(\'"></script>\\n    <script>\\n  $(document).ready(function(){\\n      $(\\\'.fancybox\\\').fancybox({\\n      helpers : {\\n                    thumbs : {\\n                        width  : 50,\\n                        height : 50\\n                    }\\n                }\\n       });\\n  });\\n  </script>\\n  <!-- uncomment here to load jquery-ui\\n  <link rel="stylesheet" href="http://ajax.googleapis.com/ajax/libs/jqueryui/1.8.16/themes/base/jquery-ui.css" type="text/css" media="all" />\\n  <script src="http://ajax.googleapis.com/ajax/libs/jqueryui/1.8.16/jquery-ui.min.js" type="text/javascript"></script>\\n  uncomment to load jquery-ui //-->\\n</head>\\n<body>\\n  <div class="wrapper"><!-- for sticky footer -->\\n  \\n    <div class="topbar">\\n      <div class="container">    \\n        <div class="sixteen columns">\\n          <div id="navbar">\', escape=False)\nresponse.write(\'auth\' in globals() and auth.navbar(separators=(\' \',\' | \',\'\')))\nresponse.write(\'</div>\\n          \', escape=False)\nis_mobile=request.user_agent().is_mobile\nresponse.write(\'\\n      \', escape=False)\nif response.menu:\n    response.write(\'\\n          <div id="menu">\\n             \', escape=False)\n    response.write(MENU(response.menu, _class=\'mobile-menu\' if is_mobile else \'sf-menu\',mobile=is_mobile))\n    response.write(\'\\n          </div>\\n          \', escape=False)\n    pass\nresponse.write(\'\\n        </div>\\n      </div>\\n    </div><!-- topbar -->\\n    \\n    <div class="flash">\', escape=False)\nresponse.write(response.flash or \'\')\nresponse.write(\'</div>\\n    \\n    <div class="header">\\n      <div class="container">         \\n        <div class="sixteen columns">\\n          <h1 class="remove-bottom" style="margin-top: .5em;">\\n          \', escape=False)\nresponse.write(response.title or request.application)\nresponse.write(\'\\n          </h1>\\n        </div>\\n      </div>\\n    </div>\\n\\n    <div class="main">\\n      <div class="container">                 \\n        \', escape=False)\nif left_sidebar_enabled:\n    response.write(\'\\n        <div class="four columns left-sidebar">\\n          \', escape=False)\n    response.write(\'\\n          <h3>Left Sidebar</h3>\\n          <p></p>\\n          \', escape=False)\n    response.write(\'\\n        </div>\\n        \', escape=False)\n    pass\nresponse.write(\'\\n        \\n        <div class="\', escape=False)\nresponse.write(middle_columns)\nresponse.write(\' columns center">\\n          \', escape=False)\nresponse.write(\'\\n          \', escape=False)\nresponse.write(\'\\n<h3 style="text-align:center">\', escape=False)\nresponse.write(p.title)\nresponse.write(\'</h3><br/>\\n<div style="width:900px;border:1px solid #ccc; background-color:white;padding:5px 5px 0px 5px">\\n    <img src="\', escape=False)\nresponse.write(URL(\'download\',args=p.image))\nresponse.write(\'" style="width:900px;padding:0px"/>\\n</div><br/>\\n<div style="font-size:30px;margin-left:50px;margin-top:10px">\', escape=False)\nresponse.write(len(l))\nresponse.write(\'</div>\\n    \', escape=False)\nfor comment in c:\n    response.write(\'\\n <p>\', escape=False)\n    response.write(c.author)\n    response.write(\' says <i>\', escape=False)\n    response.write(c.comment)\n    response.write(\'</i></p>\\n\\n  \', escape=False)\n    pass\nresponse.write(\'</p>\\n\', escape=False)\nelse:\n    response.write(\'\\n\\n  <h2>No comments posted yet</h2>    \\n    \', escape=False)\n    pass\nresponse.write(\'\\n\', escape=False)\nresponse.write(\'\\n          \', escape=False)\nresponse.write(\'\\n        </div>\\n        \\n        \', escape=False)\nif right_sidebar_enabled:\n    response.write(\'\\n        <div class="four columns">\\n          \', escape=False)\n    response.write(\'\\n          <h3>Right Sidebar</h3>\\n          <p></p>\\n          \', escape=False)\n    response.write(\'\\n        </div>    \\n        \', escape=False)\n    pass\nresponse.write(\'\\n        \\n      </div><!-- container -->\\n    </div><!-- main -->\\n  </div><!-- wrapper -->\\n<!--\\n  <div class="footer">\\n    <div class="container">    \\n      <div class="sixteen columns">\\n        \', escape=False)\nresponse.write(\'\\n        <div class="footer-content clearfix">\\n          <div class="copyright">\', escape=False)\nresponse.write(T(\'Copyright\'))\nresponse.write(\' &#169; 2011</div>\\n          <div style="float: right;">\\n            <a href="http://www.web2py.com/">\\n            <img style="padding-bottom: 0;" src="\', escape=False)\nresponse.write(URL(\'static\',\'images/poweredby.png\'))\nresponse.write(\'"/>\\n            </a>\\n          </div>\\n        </div>\\n        \', escape=False)\nresponse.write(\' \\n      </div>\\n    </div>\\n  </div>\\n-->\\n</body>\\n</html>\\n\', escape=False)'
p7
sS'snapshot'
p8
(dp9
S'exception'
p10
(dp11
S'__getslice__'
p12
S"<method-wrapper '__getslice__' of exceptions.SyntaxError object>"
p13
sS'text'
p14
S"'else:\\n'"
p15
sS'__str__'
p16
S"<method-wrapper '__str__' of exceptions.SyntaxError object>"
p17
sS'__reduce__'
p18
S'<built-in method __reduce__ of exceptions.SyntaxError object>'
p19
sS'__dict__'
p20
S'{}'
p21
sS'__sizeof__'
p22
S'<built-in method __sizeof__ of exceptions.SyntaxError object>'
p23
sS'__init__'
p24
S"<method-wrapper '__init__' of exceptions.SyntaxError object>"
p25
sS'__setattr__'
p26
S"<method-wrapper '__setattr__' of exceptions.SyntaxError object>"
p27
sS'__reduce_ex__'
p28
S'<built-in method __reduce_ex__ of exceptions.SyntaxError object>'
p29
sS'__new__'
p30
S'<built-in method __new__ of type object>'
p31
sS'__format__'
p32
S'<built-in method __format__ of exceptions.SyntaxError object>'
p33
sS'__class__'
p34
S"<type 'exceptions.SyntaxError'>"
p35
sS'filename'
p36
S"'/home/anu/Desktop/M12/ssad m12/web2py/applications/PhotoUpload/views/default/picture.html'"
p37
sS'lineno'
p38
S'108'
p39
sS'msg'
p40
S"'invalid syntax'"
p41
sS'__doc__'
p42
S"'Invalid syntax.'"
p43
sS'__getitem__'
p44
S"<method-wrapper '__getitem__' of exceptions.SyntaxError object>"
p45
sS'__setstate__'
p46
S'<built-in method __setstate__ of exceptions.SyntaxError object>'
p47
sS'__getattribute__'
p48
S"<method-wrapper '__getattribute__' of exceptions.SyntaxError object>"
p49
sS'print_file_and_line'
p50
S'None'
p51
sS'args'
p52
S"('invalid syntax', ('/home/anu/Desktop/M12/ssad m12/web2py/applications/PhotoUpload/views/default/picture.html', 108, 4, 'else:\\n'))"
p53
sS'__subclasshook__'
p54
S'<built-in method __subclasshook__ of type object>'
p55
sS'offset'
p56
S'4'
sS'__unicode__'
p57
S'<built-in method __unicode__ of exceptions.SyntaxError object>'
p58
sS'__delattr__'
p59
S"<method-wrapper '__delattr__' of exceptions.SyntaxError object>"
p60
sS'__repr__'
p61
S"<method-wrapper '__repr__' of exceptions.SyntaxError object>"
p62
sS'__hash__'
p63
S"<method-wrapper '__hash__' of exceptions.SyntaxError object>"
p64
ssS'evalue'
p65
S'invalid syntax (picture.html, line 108)'
p66
sS'request'
p67
ccopy_reg
_reconstructor
p68
(cgluon.html
BEAUTIFY
p69
c__builtin__
object
p70
NtRp71
(dp72
S'attributes'
p73
(dp74
sS'components'
p75
(lp76
g68
(cgluon.html
TABLE
p77
g70
NtRp78
(dp79
g73
(dp80
S'level'
p81
I5
ssS'parent'
p82
Nsg75
(lp83
g68
(cgluon.html
TR
p84
g70
NtRp85
(dp86
g73
(dp87
sg82
g78
sg75
(lp88
g68
(cgluon.html
TD
p89
g70
NtRp90
(dp91
g73
(dp92
S'_style'
p93
S'font-weight:bold;vertical-align:top'
p94
ssg82
g85
sg75
(lp95
S'ajax'
p96
asbag68
(g89
g70
NtRp97
(dp98
g73
(dp99
S'_valign'
p100
S'top'
p101
ssg82
g85
sg75
(lp102
S':'
asbag68
(g89
g70
NtRp103
(dp104
g73
(dp105
sg82
g85
sg75
(lp106
g68
(g69
g70
NtRp107
(dp108
g73
(dp109
g81
I5
ssg82
g103
sg75
(lp110
S'False'
p111
asbasbasbag68
(g84
g70
NtRp112
(dp113
g73
(dp114
sg82
g78
sg75
(lp115
g68
(g89
g70
NtRp116
(dp117
g73
(dp118
g93
g94
ssg82
g112
sg75
(lp119
S'application'
p120
asbag68
(g89
g70
NtRp121
(dp122
g73
(dp123
g100
g101
ssg82
g112
sg75
(lp124
S':'
asbag68
(g89
g70
NtRp125
(dp126
g73
(dp127
sg82
g112
sg75
(lp128
g68
(g69
g70
NtRp129
(dp130
g73
(dp131
g81
I5
ssg82
g125
sg75
(lp132
S'PhotoUpload'
p133
asbasbasbag68
(g84
g70
NtRp134
(dp135
g73
(dp136
sg82
g78
sg75
(lp137
g68
(g89
g70
NtRp138
(dp139
g73
(dp140
g93
g94
ssg82
g134
sg75
(lp141
g52
asbag68
(g89
g70
NtRp142
(dp143
g73
(dp144
g100
g101
ssg82
g134
sg75
(lp145
S':'
asbag68
(g89
g70
NtRp146
(dp147
g73
(dp148
sg82
g134
sg75
(lp149
g68
(g69
g70
NtRp150
(dp151
g73
(dp152
g81
I5
ssg82
g146
sg75
(lp153
g68
(g77
g70
NtRp154
(dp155
g73
(dp156
g81
I4
ssg82
Nsg75
(lp157
g68
(g84
g70
NtRp158
(dp159
g73
(dp160
sg82
g154
sg75
(lp161
g68
(g89
g70
NtRp162
(dp163
g73
(dp164
sg82
g158
sg75
(lp165
g68
(g69
g70
NtRp166
(dp167
g73
(dp168
g81
I4
ssg82
g162
sg75
(lp169
S'4'
asbasbasbasbasbasbasbag68
(g84
g70
NtRp170
(dp171
g73
(dp172
sg82
g78
sg75
(lp173
g68
(g89
g70
NtRp174
(dp175
g73
(dp176
g93
g94
ssg82
g170
sg75
(lp177
S'body'
p178
asbag68
(g89
g70
NtRp179
(dp180
g73
(dp181
g100
g101
ssg82
g170
sg75
(lp182
S':'
asbag68
(g89
g70
NtRp183
(dp184
g73
(dp185
sg82
g170
sg75
(lp186
g68
(g69
g70
NtRp187
(dp188
g73
(dp189
g81
I5
ssg82
g183
sg75
(lp190
S'<cStringIO.StringO object at 0xae56ce60>'
p191
asbasbasbag68
(g84
g70
NtRp192
(dp193
g73
(dp194
sg82
g78
sg75
(lp195
g68
(g89
g70
NtRp196
(dp197
g73
(dp198
g93
g94
ssg82
g192
sg75
(lp199
S'client'
p200
asbag68
(g89
g70
NtRp201
(dp202
g73
(dp203
g100
g101
ssg82
g192
sg75
(lp204
S':'
asbag68
(g89
g70
NtRp205
(dp206
g73
(dp207
sg82
g192
sg75
(lp208
g68
(g69
g70
NtRp209
(dp210
g73
(dp211
g81
I5
ssg82
g205
sg75
(lp212
S'127.0.0.1'
p213
asbasbasbag68
(g84
g70
NtRp214
(dp215
g73
(dp216
sg82
g78
sg75
(lp217
g68
(g89
g70
NtRp218
(dp219
g73
(dp220
g93
g94
ssg82
g214
sg75
(lp221
S'controller'
p222
asbag68
(g89
g70
NtRp223
(dp224
g73
(dp225
g100
g101
ssg82
g214
sg75
(lp226
S':'
asbag68
(g89
g70
NtRp227
(dp228
g73
(dp229
sg82
g214
sg75
(lp230
g68
(g69
g70
NtRp231
(dp232
g73
(dp233
g81
I5
ssg82
g227
sg75
(lp234
S'default'
p235
asbasbasbag68
(g84
g70
NtRp236
(dp237
g73
(dp238
sg82
g78
sg75
(lp239
g68
(g89
g70
NtRp240
(dp241
g73
(dp242
g93
g94
ssg82
g236
sg75
(lp243
S'cookies'
p244
asbag68
(g89
g70
NtRp245
(dp246
g73
(dp247
g100
g101
ssg82
g236
sg75
(lp248
S':'
asbag68
(g89
g70
NtRp249
(dp250
g73
(dp251
sg82
g236
sg75
(lp252
g68
(g69
g70
NtRp253
(dp254
g73
(dp255
g81
I5
ssg82
g249
sg75
(lp256
g68
(g77
g70
NtRp257
(dp258
g73
(dp259
g81
I4
ssg82
Nsg75
(lp260
g68
(g84
g70
NtRp261
(dp262
g73
(dp263
sg82
g257
sg75
(lp264
g68
(g89
g70
NtRp265
(dp266
g73
(dp267
g93
g94
ssg82
g261
sg75
(lp268
S'session_id_admin'
p269
asbag68
(g89
g70
NtRp270
(dp271
g73
(dp272
g100
g101
ssg82
g261
sg75
(lp273
S':'
asbag68
(g89
g70
NtRp274
(dp275
g73
(dp276
sg82
g261
sg75
(lp277
g68
(g69
g70
NtRp278
(dp279
g73
(dp280
g81
I4
ssg82
g274
sg75
(lp281
g68
(g77
g70
NtRp282
(dp283
g73
(dp284
g81
I3
ssg82
Nsg75
(lp285
g68
(g84
g70
NtRp286
(dp287
g73
(dp288
sg82
g282
sg75
(lp289
g68
(g89
g70
NtRp290
(dp291
g73
(dp292
g93
g94
ssg82
g286
sg75
(lp293
S'comment'
p294
asbag68
(g89
g70
NtRp295
(dp296
g73
(dp297
g100
g101
ssg82
g286
sg75
(lp298
S':'
asbag68
(g89
g70
NtRp299
(dp300
g73
(dp301
sg82
g286
sg75
(lp302
g68
(g69
g70
NtRp303
(dp304
g73
(dp305
g81
I3
ssg82
g299
sg75
(lp306
S''
asbasbasbag68
(g84
g70
NtRp307
(dp308
g73
(dp309
sg82
g282
sg75
(lp310
g68
(g89
g70
NtRp311
(dp312
g73
(dp313
g93
g94
ssg82
g307
sg75
(lp314
S'domain'
p315
asbag68
(g89
g70
NtRp316
(dp317
g73
(dp318
g100
g101
ssg82
g307
sg75
(lp319
S':'
asbag68
(g89
g70
NtRp320
(dp321
g73
(dp322
sg82
g307
sg75
(lp323
g68
(g69
g70
NtRp324
(dp325
g73
(dp326
g81
I3
ssg82
g320
sg75
(lp327
S''
asbasbasbag68
(g84
g70
NtRp328
(dp329
g73
(dp330
sg82
g282
sg75
(lp331
g68
(g89
g70
NtRp332
(dp333
g73
(dp334
g93
g94
ssg82
g328
sg75
(lp335
S'expires'
p336
asbag68
(g89
g70
NtRp337
(dp338
g73
(dp339
g100
g101
ssg82
g328
sg75
(lp340
S':'
asbag68
(g89
g70
NtRp341
(dp342
g73
(dp343
sg82
g328
sg75
(lp344
g68
(g69
g70
NtRp345
(dp346
g73
(dp347
g81
I3
ssg82
g341
sg75
(lp348
S''
asbasbasbag68
(g84
g70
NtRp349
(dp350
g73
(dp351
sg82
g282
sg75
(lp352
g68
(g89
g70
NtRp353
(dp354
g73
(dp355
g93
g94
ssg82
g349
sg75
(lp356
S'httponly'
p357
asbag68
(g89
g70
NtRp358
(dp359
g73
(dp360
g100
g101
ssg82
g349
sg75
(lp361
S':'
asbag68
(g89
g70
NtRp362
(dp363
g73
(dp364
sg82
g349
sg75
(lp365
g68
(g69
g70
NtRp366
(dp367
g73
(dp368
g81
I3
ssg82
g362
sg75
(lp369
S''
asbasbasbag68
(g84
g70
NtRp370
(dp371
g73
(dp372
sg82
g282
sg75
(lp373
g68
(g89
g70
NtRp374
(dp375
g73
(dp376
g93
g94
ssg82
g370
sg75
(lp377
S'max-age'
p378
asbag68
(g89
g70
NtRp379
(dp380
g73
(dp381
g100
g101
ssg82
g370
sg75
(lp382
S':'
asbag68
(g89
g70
NtRp383
(dp384
g73
(dp385
sg82
g370
sg75
(lp386
g68
(g69
g70
NtRp387
(dp388
g73
(dp389
g81
I3
ssg82
g383
sg75
(lp390
S''
asbasbasbag68
(g84
g70
NtRp391
(dp392
g73
(dp393
sg82
g282
sg75
(lp394
g68
(g89
g70
NtRp395
(dp396
g73
(dp397
g93
g94
ssg82
g391
sg75
(lp398
S'path'
p399
asbag68
(g89
g70
NtRp400
(dp401
g73
(dp402
g100
g101
ssg82
g391
sg75
(lp403
S':'
asbag68
(g89
g70
NtRp404
(dp405
g73
(dp406
sg82
g391
sg75
(lp407
g68
(g69
g70
NtRp408
(dp409
g73
(dp410
g81
I3
ssg82
g404
sg75
(lp411
S''
asbasbasbag68
(g84
g70
NtRp412
(dp413
g73
(dp414
sg82
g282
sg75
(lp415
g68
(g89
g70
NtRp416
(dp417
g73
(dp418
g93
g94
ssg82
g412
sg75
(lp419
S'secure'
p420
asbag68
(g89
g70
NtRp421
(dp422
g73
(dp423
g100
g101
ssg82
g412
sg75
(lp424
S':'
asbag68
(g89
g70
NtRp425
(dp426
g73
(dp427
sg82
g412
sg75
(lp428
g68
(g69
g70
NtRp429
(dp430
g73
(dp431
g81
I3
ssg82
g425
sg75
(lp432
S''
asbasbasbag68
(g84
g70
NtRp433
(dp434
g73
(dp435
sg82
g282
sg75
(lp436
g68
(g89
g70
NtRp437
(dp438
g73
(dp439
g93
g94
ssg82
g433
sg75
(lp440
S'version'
p441
asbag68
(g89
g70
NtRp442
(dp443
g73
(dp444
g100
g101
ssg82
g433
sg75
(lp445
S':'
asbag68
(g89
g70
NtRp446
(dp447
g73
(dp448
sg82
g433
sg75
(lp449
g68
(g69
g70
NtRp450
(dp451
g73
(dp452
g81
I3
ssg82
g446
sg75
(lp453
S''
asbasbasbasbasbasbasbag68
(g84
g70
NtRp454
(dp455
g73
(dp456
sg82
g257
sg75
(lp457
g68
(g89
g70
NtRp458
(dp459
g73
(dp460
g93
g94
ssg82
g454
sg75
(lp461
S'session_id_photoupload'
p462
asbag68
(g89
g70
NtRp463
(dp464
g73
(dp465
g100
g101
ssg82
g454
sg75
(lp466
S':'
asbag68
(g89
g70
NtRp467
(dp468
g73
(dp469
sg82
g454
sg75
(lp470
g68
(g69
g70
NtRp471
(dp472
g73
(dp473
g81
I4
ssg82
g467
sg75
(lp474
g68
(g77
g70
NtRp475
(dp476
g73
(dp477
g81
I3
ssg82
Nsg75
(lp478
g68
(g84
g70
NtRp479
(dp480
g73
(dp481
sg82
g475
sg75
(lp482
g68
(g89
g70
NtRp483
(dp484
g73
(dp485
g93
g94
ssg82
g479
sg75
(lp486
g294
asbag68
(g89
g70
NtRp487
(dp488
g73
(dp489
g100
g101
ssg82
g479
sg75
(lp490
S':'
asbag68
(g89
g70
NtRp491
(dp492
g73
(dp493
sg82
g479
sg75
(lp494
g68
(g69
g70
NtRp495
(dp496
g73
(dp497
g81
I3
ssg82
g491
sg75
(lp498
S''
asbasbasbag68
(g84
g70
NtRp499
(dp500
g73
(dp501
sg82
g475
sg75
(lp502
g68
(g89
g70
NtRp503
(dp504
g73
(dp505
g93
g94
ssg82
g499
sg75
(lp506
g315
asbag68
(g89
g70
NtRp507
(dp508
g73
(dp509
g100
g101
ssg82
g499
sg75
(lp510
S':'
asbag68
(g89
g70
NtRp511
(dp512
g73
(dp513
sg82
g499
sg75
(lp514
g68
(g69
g70
NtRp515
(dp516
g73
(dp517
g81
I3
ssg82
g511
sg75
(lp518
S''
asbasbasbag68
(g84
g70
NtRp519
(dp520
g73
(dp521
sg82
g475
sg75
(lp522
g68
(g89
g70
NtRp523
(dp524
g73
(dp525
g93
g94
ssg82
g519
sg75
(lp526
g336
asbag68
(g89
g70
NtRp527
(dp528
g73
(dp529
g100
g101
ssg82
g519
sg75
(lp530
S':'
asbag68
(g89
g70
NtRp531
(dp532
g73
(dp533
sg82
g519
sg75
(lp534
g68
(g69
g70
NtRp535
(dp536
g73
(dp537
g81
I3
ssg82
g531
sg75
(lp538
S''
asbasbasbag68
(g84
g70
NtRp539
(dp540
g73
(dp541
sg82
g475
sg75
(lp542
g68
(g89
g70
NtRp543
(dp544
g73
(dp545
g93
g94
ssg82
g539
sg75
(lp546
g357
asbag68
(g89
g70
NtRp547
(dp548
g73
(dp549
g100
g101
ssg82
g539
sg75
(lp550
S':'
asbag68
(g89
g70
NtRp551
(dp552
g73
(dp553
sg82
g539
sg75
(lp554
g68
(g69
g70
NtRp555
(dp556
g73
(dp557
g81
I3
ssg82
g551
sg75
(lp558
S''
asbasbasbag68
(g84
g70
NtRp559
(dp560
g73
(dp561
sg82
g475
sg75
(lp562
g68
(g89
g70
NtRp563
(dp564
g73
(dp565
g93
g94
ssg82
g559
sg75
(lp566
g378
asbag68
(g89
g70
NtRp567
(dp568
g73
(dp569
g100
g101
ssg82
g559
sg75
(lp570
S':'
asbag68
(g89
g70
NtRp571
(dp572
g73
(dp573
sg82
g559
sg75
(lp574
g68
(g69
g70
NtRp575
(dp576
g73
(dp577
g81
I3
ssg82
g571
sg75
(lp578
S''
asbasbasbag68
(g84
g70
NtRp579
(dp580
g73
(dp581
sg82
g475
sg75
(lp582
g68
(g89
g70
NtRp583
(dp584
g73
(dp585
g93
g94
ssg82
g579
sg75
(lp586
g399
asbag68
(g89
g70
NtRp587
(dp588
g73
(dp589
g100
g101
ssg82
g579
sg75
(lp590
S':'
asbag68
(g89
g70
NtRp591
(dp592
g73
(dp593
sg82
g579
sg75
(lp594
g68
(g69
g70
NtRp595
(dp596
g73
(dp597
g81
I3
ssg82
g591
sg75
(lp598
S''
asbasbasbag68
(g84
g70
NtRp599
(dp600
g73
(dp601
sg82
g475
sg75
(lp602
g68
(g89
g70
NtRp603
(dp604
g73
(dp605
g93
g94
ssg82
g599
sg75
(lp606
g420
asbag68
(g89
g70
NtRp607
(dp608
g73
(dp609
g100
g101
ssg82
g599
sg75
(lp610
S':'
asbag68
(g89
g70
NtRp611
(dp612
g73
(dp613
sg82
g599
sg75
(lp614
g68
(g69
g70
NtRp615
(dp616
g73
(dp617
g81
I3
ssg82
g611
sg75
(lp618
S''
asbasbasbag68
(g84
g70
NtRp619
(dp620
g73
(dp621
sg82
g475
sg75
(lp622
g68
(g89
g70
NtRp623
(dp624
g73
(dp625
g93
g94
ssg82
g619
sg75
(lp626
g441
asbag68
(g89
g70
NtRp627
(dp628
g73
(dp629
g100
g101
ssg82
g619
sg75
(lp630
S':'
asbag68
(g89
g70
NtRp631
(dp632
g73
(dp633
sg82
g619
sg75
(lp634
g68
(g69
g70
NtRp635
(dp636
g73
(dp637
g81
I3
ssg82
g631
sg75
(lp638
S''
asbasbasbasbasbasbasbag68
(g84
g70
NtRp639
(dp640
g73
(dp641
sg82
g257
sg75
(lp642
g68
(g89
g70
NtRp643
(dp644
g73
(dp645
g93
g94
ssg82
g639
sg75
(lp646
S'session_id_welcome'
p647
asbag68
(g89
g70
NtRp648
(dp649
g73
(dp650
g100
g101
ssg82
g639
sg75
(lp651
S':'
asbag68
(g89
g70
NtRp652
(dp653
g73
(dp654
sg82
g639
sg75
(lp655
g68
(g69
g70
NtRp656
(dp657
g73
(dp658
g81
I4
ssg82
g652
sg75
(lp659
g68
(g77
g70
NtRp660
(dp661
g73
(dp662
g81
I3
ssg82
Nsg75
(lp663
g68
(g84
g70
NtRp664
(dp665
g73
(dp666
sg82
g660
sg75
(lp667
g68
(g89
g70
NtRp668
(dp669
g73
(dp670
g93
g94
ssg82
g664
sg75
(lp671
g294
asbag68
(g89
g70
NtRp672
(dp673
g73
(dp674
g100
g101
ssg82
g664
sg75
(lp675
S':'
asbag68
(g89
g70
NtRp676
(dp677
g73
(dp678
sg82
g664
sg75
(lp679
g68
(g69
g70
NtRp680
(dp681
g73
(dp682
g81
I3
ssg82
g676
sg75
(lp683
S''
asbasbasbag68
(g84
g70
NtRp684
(dp685
g73
(dp686
sg82
g660
sg75
(lp687
g68
(g89
g70
NtRp688
(dp689
g73
(dp690
g93
g94
ssg82
g684
sg75
(lp691
g315
asbag68
(g89
g70
NtRp692
(dp693
g73
(dp694
g100
g101
ssg82
g684
sg75
(lp695
S':'
asbag68
(g89
g70
NtRp696
(dp697
g73
(dp698
sg82
g684
sg75
(lp699
g68
(g69
g70
NtRp700
(dp701
g73
(dp702
g81
I3
ssg82
g696
sg75
(lp703
S''
asbasbasbag68
(g84
g70
NtRp704
(dp705
g73
(dp706
sg82
g660
sg75
(lp707
g68
(g89
g70
NtRp708
(dp709
g73
(dp710
g93
g94
ssg82
g704
sg75
(lp711
g336
asbag68
(g89
g70
NtRp712
(dp713
g73
(dp714
g100
g101
ssg82
g704
sg75
(lp715
S':'
asbag68
(g89
g70
NtRp716
(dp717
g73
(dp718
sg82
g704
sg75
(lp719
g68
(g69
g70
NtRp720
(dp721
g73
(dp722
g81
I3
ssg82
g716
sg75
(lp723
S''
asbasbasbag68
(g84
g70
NtRp724
(dp725
g73
(dp726
sg82
g660
sg75
(lp727
g68
(g89
g70
NtRp728
(dp729
g73
(dp730
g93
g94
ssg82
g724
sg75
(lp731
g357
asbag68
(g89
g70
NtRp732
(dp733
g73
(dp734
g100
g101
ssg82
g724
sg75
(lp735
S':'
asbag68
(g89
g70
NtRp736
(dp737
g73
(dp738
sg82
g724
sg75
(lp739
g68
(g69
g70
NtRp740
(dp741
g73
(dp742
g81
I3
ssg82
g736
sg75
(lp743
S''
asbasbasbag68
(g84
g70
NtRp744
(dp745
g73
(dp746
sg82
g660
sg75
(lp747
g68
(g89
g70
NtRp748
(dp749
g73
(dp750
g93
g94
ssg82
g744
sg75
(lp751
g378
asbag68
(g89
g70
NtRp752
(dp753
g73
(dp754
g100
g101
ssg82
g744
sg75
(lp755
S':'
asbag68
(g89
g70
NtRp756
(dp757
g73
(dp758
sg82
g744
sg75
(lp759
g68
(g69
g70
NtRp760
(dp761
g73
(dp762
g81
I3
ssg82
g756
sg75
(lp763
S''
asbasbasbag68
(g84
g70
NtRp764
(dp765
g73
(dp766
sg82
g660
sg75
(lp767
g68
(g89
g70
NtRp768
(dp769
g73
(dp770
g93
g94
ssg82
g764
sg75
(lp771
g399
asbag68
(g89
g70
NtRp772
(dp773
g73
(dp774
g100
g101
ssg82
g764
sg75
(lp775
S':'
asbag68
(g89
g70
NtRp776
(dp777
g73
(dp778
sg82
g764
sg75
(lp779
g68
(g69
g70
NtRp780
(dp781
g73
(dp782
g81
I3
ssg82
g776
sg75
(lp783
S''
asbasbasbag68
(g84
g70
NtRp784
(dp785
g73
(dp786
sg82
g660
sg75
(lp787
g68
(g89
g70
NtRp788
(dp789
g73
(dp790
g93
g94
ssg82
g784
sg75
(lp791
g420
asbag68
(g89
g70
NtRp792
(dp793
g73
(dp794
g100
g101
ssg82
g784
sg75
(lp795
S':'
asbag68
(g89
g70
NtRp796
(dp797
g73
(dp798
sg82
g784
sg75
(lp799
g68
(g69
g70
NtRp800
(dp801
g73
(dp802
g81
I3
ssg82
g796
sg75
(lp803
S''
asbasbasbag68
(g84
g70
NtRp804
(dp805
g73
(dp806
sg82
g660
sg75
(lp807
g68
(g89
g70
NtRp808
(dp809
g73
(dp810
g93
g94
ssg82
g804
sg75
(lp811
g441
asbag68
(g89
g70
NtRp812
(dp813
g73
(dp814
g100
g101
ssg82
g804
sg75
(lp815
S':'
asbag68
(g89
g70
NtRp816
(dp817
g73
(dp818
sg82
g804
sg75
(lp819
g68
(g69
g70
NtRp820
(dp821
g73
(dp822
g81
I3
ssg82
g816
sg75
(lp823
S''
asbasbasbasbasbasbasbasbasbasbasbag68
(g84
g70
NtRp824
(dp825
g73
(dp826
sg82
g78
sg75
(lp827
g68
(g89
g70
NtRp828
(dp829
g73
(dp830
g93
g94
ssg82
g824
sg75
(lp831
S'env'
p832
asbag68
(g89
g70
NtRp833
(dp834
g73
(dp835
g100
g101
ssg82
g824
sg75
(lp836
S':'
asbag68
(g89
g70
NtRp837
(dp838
g73
(dp839
sg82
g824
sg75
(lp840
g68
(g69
g70
NtRp841
(dp842
g73
(dp843
g81
I5
ssg82
g837
sg75
(lp844
g68
(g77
g70
NtRp845
(dp846
g73
(dp847
g81
I4
ssg82
Nsg75
(lp848
g68
(g84
g70
NtRp849
(dp850
g73
(dp851
sg82
g845
sg75
(lp852
g68
(g89
g70
NtRp853
(dp854
g73
(dp855
g93
g94
ssg82
g849
sg75
(lp856
S'app_folders'
p857
asbag68
(g89
g70
NtRp858
(dp859
g73
(dp860
g100
g101
ssg82
g849
sg75
(lp861
S':'
asbag68
(g89
g70
NtRp862
(dp863
g73
(dp864
sg82
g849
sg75
(lp865
g68
(g69
g70
NtRp866
(dp867
g73
(dp868
g81
I4
ssg82
g862
sg75
(lp869
S"set(['/home/anu/Desktop/M12/ssad m12/web2py/applications/PhotoUpload/', '/home/anu/Desktop/M12/ssad m12/web2py/applications/welcome/', '/home/anu/Desktop/M12/ssad m12/web2py/applications/admin/'])"
p870
asbasbasbag68
(g84
g70
NtRp871
(dp872
g73
(dp873
sg82
g845
sg75
(lp874
g68
(g89
g70
NtRp875
(dp876
g73
(dp877
g93
g94
ssg82
g871
sg75
(lp878
S'applications_parent'
p879
asbag68
(g89
g70
NtRp880
(dp881
g73
(dp882
g100
g101
ssg82
g871
sg75
(lp883
S':'
asbag68
(g89
g70
NtRp884
(dp885
g73
(dp886
sg82
g871
sg75
(lp887
g68
(g69
g70
NtRp888
(dp889
g73
(dp890
g81
I4
ssg82
g884
sg75
(lp891
S'/home/anu/Desktop/M12/ssad m12/web2py'
p892
asbasbasbag68
(g84
g70
NtRp893
(dp894
g73
(dp895
sg82
g845
sg75
(lp896
g68
(g89
g70
NtRp897
(dp898
g73
(dp899
g93
g94
ssg82
g893
sg75
(lp900
S'cmd_args'
p901
asbag68
(g89
g70
NtRp902
(dp903
g73
(dp904
g100
g101
ssg82
g893
sg75
(lp905
S':'
asbag68
(g89
g70
NtRp906
(dp907
g73
(dp908
sg82
g893
sg75
(lp909
g68
(g69
g70
NtRp910
(dp911
g73
(dp912
g81
I4
ssg82
g906
sg75
(lp913
g68
(g77
g70
NtRp914
(dp915
g73
(dp916
g81
I3
ssg82
Nsg75
(lp917
sbasbasbasbag68
(g84
g70
NtRp918
(dp919
g73
(dp920
sg82
g845
sg75
(lp921
g68
(g89
g70
NtRp922
(dp923
g73
(dp924
g93
g94
ssg82
g918
sg75
(lp925
S'cmd_options'
p926
asbag68
(g89
g70
NtRp927
(dp928
g73
(dp929
g100
g101
ssg82
g918
sg75
(lp930
S':'
asbag68
(g89
g70
NtRp931
(dp932
g73
(dp933
sg82
g918
sg75
(lp934
g68
(g69
g70
NtRp935
(dp936
g73
(dp937
g81
I4
ssg82
g931
sg75
(lp938
S"<Values at 0xa53186c: {'verbose': False, 'ip': '127.0.0.1', 'shutdown_timeout': 5, 'taskbar': False, 'nocron': False, 'pid_filename': 'httpserver.pid', 'maxthreads': None, 'softcron': False, 'server_name': 'COMPAQ', 'bpython': False, 'nogui': False, 'port': 8000, 'extcron': False, 'debuglevel': 30, 'test': None, 'folder': '/home/anu/Desktop/M12/ssad m12/web2py', 'config': '', 'import_models': False, 'winservice': '', 'shell': None, 'run': '', 'log_filename': 'httpserver.log', 'args': [''], 'socket_timeout': 5, 'ssl_ca_certificate': None, 'scheduler': None, 'profiler_filename': None, 'ssl_private_key': '', 'password': 'anu', 'request_queue_size': 5, 'ssl_certificate': '', 'cronjob': False, 'numthreads': None, 'quiet': False, 'interfaces': None, 'minthreads': None, 'timeout': 10, 'plain': False, 'nobanner': False}>"
p939
asbasbasbag68
(g84
g70
NtRp940
(dp941
g73
(dp942
sg82
g845
sg75
(lp943
g68
(g89
g70
NtRp944
(dp945
g73
(dp946
g93
g94
ssg82
g940
sg75
(lp947
S'db_sessions'
p948
asbag68
(g89
g70
NtRp949
(dp950
g73
(dp951
g100
g101
ssg82
g940
sg75
(lp952
S':'
asbag68
(g89
g70
NtRp953
(dp954
g73
(dp955
sg82
g940
sg75
(lp956
g68
(g69
g70
NtRp957
(dp958
g73
(dp959
g81
I4
ssg82
g953
sg75
(lp960
S'set([])'
p961
asbasbasbag68
(g84
g70
NtRp962
(dp963
g73
(dp964
sg82
g845
sg75
(lp965
g68
(g89
g70
NtRp966
(dp967
g73
(dp968
g93
g94
ssg82
g962
sg75
(lp969
S'debugging'
p970
asbag68
(g89
g70
NtRp971
(dp972
g73
(dp973
g100
g101
ssg82
g962
sg75
(lp974
S':'
asbag68
(g89
g70
NtRp975
(dp976
g73
(dp977
sg82
g962
sg75
(lp978
g68
(g69
g70
NtRp979
(dp980
g73
(dp981
g81
I4
ssg82
g975
sg75
(lp982
g111
asbasbasbag68
(g84
g70
NtRp983
(dp984
g73
(dp985
sg82
g845
sg75
(lp986
g68
(g89
g70
NtRp987
(dp988
g73
(dp989
g93
g94
ssg82
g983
sg75
(lp990
S'gluon_parent'
p991
asbag68
(g89
g70
NtRp992
(dp993
g73
(dp994
g100
g101
ssg82
g983
sg75
(lp995
S':'
asbag68
(g89
g70
NtRp996
(dp997
g73
(dp998
sg82
g983
sg75
(lp999
g68
(g69
g70
NtRp1000
(dp1001
g73
(dp1002
g81
I4
ssg82
g996
sg75
(lp1003
S'/home/anu/Desktop/M12/ssad m12/web2py'
p1004
asbasbasbag68
(g84
g70
NtRp1005
(dp1006
g73
(dp1007
sg82
g845
sg75
(lp1008
g68
(g89
g70
NtRp1009
(dp1010
g73
(dp1011
g93
g94
ssg82
g1005
sg75
(lp1012
S'http_accept'
p1013
asbag68
(g89
g70
NtRp1014
(dp1015
g73
(dp1016
g100
g101
ssg82
g1005
sg75
(lp1017
S':'
asbag68
(g89
g70
NtRp1018
(dp1019
g73
(dp1020
sg82
g1005
sg75
(lp1021
g68
(g69
g70
NtRp1022
(dp1023
g73
(dp1024
g81
I4
ssg82
g1018
sg75
(lp1025
S'text/html,application/xhtml+xml,application/xml;q=0.9,*/*;q=0.8'
p1026
asbasbasbag68
(g84
g70
NtRp1027
(dp1028
g73
(dp1029
sg82
g845
sg75
(lp1030
g68
(g89
g70
NtRp1031
(dp1032
g73
(dp1033
g93
g94
ssg82
g1027
sg75
(lp1034
S'http_accept_encoding'
p1035
asbag68
(g89
g70
NtRp1036
(dp1037
g73
(dp1038
g100
g101
ssg82
g1027
sg75
(lp1039
S':'
asbag68
(g89
g70
NtRp1040
(dp1041
g73
(dp1042
sg82
g1027
sg75
(lp1043
g68
(g69
g70
NtRp1044
(dp1045
g73
(dp1046
g81
I4
ssg82
g1040
sg75
(lp1047
S'gzip, deflate'
p1048
asbasbasbag68
(g84
g70
NtRp1049
(dp1050
g73
(dp1051
sg82
g845
sg75
(lp1052
g68
(g89
g70
NtRp1053
(dp1054
g73
(dp1055
g93
g94
ssg82
g1049
sg75
(lp1056
S'http_accept_language'
p1057
asbag68
(g89
g70
NtRp1058
(dp1059
g73
(dp1060
g100
g101
ssg82
g1049
sg75
(lp1061
S':'
asbag68
(g89
g70
NtRp1062
(dp1063
g73
(dp1064
sg82
g1049
sg75
(lp1065
g68
(g69
g70
NtRp1066
(dp1067
g73
(dp1068
g81
I4
ssg82
g1062
sg75
(lp1069
S'en-us,en;q=0.5'
p1070
asbasbasbag68
(g84
g70
NtRp1071
(dp1072
g73
(dp1073
sg82
g845
sg75
(lp1074
g68
(g89
g70
NtRp1075
(dp1076
g73
(dp1077
g93
g94
ssg82
g1071
sg75
(lp1078
S'http_connection'
p1079
asbag68
(g89
g70
NtRp1080
(dp1081
g73
(dp1082
g100
g101
ssg82
g1071
sg75
(lp1083
S':'
asbag68
(g89
g70
NtRp1084
(dp1085
g73
(dp1086
sg82
g1071
sg75
(lp1087
g68
(g69
g70
NtRp1088
(dp1089
g73
(dp1090
g81
I4
ssg82
g1084
sg75
(lp1091
S'keep-alive'
p1092
asbasbasbag68
(g84
g70
NtRp1093
(dp1094
g73
(dp1095
sg82
g845
sg75
(lp1096
g68
(g89
g70
NtRp1097
(dp1098
g73
(dp1099
g93
g94
ssg82
g1093
sg75
(lp1100
S'http_cookie'
p1101
asbag68
(g89
g70
NtRp1102
(dp1103
g73
(dp1104
g100
g101
ssg82
g1093
sg75
(lp1105
S':'
asbag68
(g89
g70
NtRp1106
(dp1107
g73
(dp1108
sg82
g1093
sg75
(lp1109
g68
(g69
g70
NtRp1110
(dp1111
g73
(dp1112
g81
I4
ssg82
g1106
sg75
(lp1113
S'session_id_welcome=127.0.0.1-31c94a36-bea0-4344-878c-58b0c691100c; session_id_photoupload=127.0.0.1-0f635432-6687-421f-a06a-9fc402d47a2b; session_id_admin=127.0.0.1-cfb14c6d-55eb-4473-b2f9-77bd1ed3ee40'
p1114
asbasbasbag68
(g84
g70
NtRp1115
(dp1116
g73
(dp1117
sg82
g845
sg75
(lp1118
g68
(g89
g70
NtRp1119
(dp1120
g73
(dp1121
g93
g94
ssg82
g1115
sg75
(lp1122
S'http_host'
p1123
asbag68
(g89
g70
NtRp1124
(dp1125
g73
(dp1126
g100
g101
ssg82
g1115
sg75
(lp1127
S':'
asbag68
(g89
g70
NtRp1128
(dp1129
g73
(dp1130
sg82
g1115
sg75
(lp1131
g68
(g69
g70
NtRp1132
(dp1133
g73
(dp1134
g81
I4
ssg82
g1128
sg75
(lp1135
S'127.0.0.1:8000'
p1136
asbasbasbag68
(g84
g70
NtRp1137
(dp1138
g73
(dp1139
sg82
g845
sg75
(lp1140
g68
(g89
g70
NtRp1141
(dp1142
g73
(dp1143
g93
g94
ssg82
g1137
sg75
(lp1144
S'http_referer'
p1145
asbag68
(g89
g70
NtRp1146
(dp1147
g73
(dp1148
g100
g101
ssg82
g1137
sg75
(lp1149
S':'
asbag68
(g89
g70
NtRp1150
(dp1151
g73
(dp1152
sg82
g1137
sg75
(lp1153
g68
(g69
g70
NtRp1154
(dp1155
g73
(dp1156
g81
I4
ssg82
g1150
sg75
(lp1157
S'http://127.0.0.1:8000/PhotoUpload/default/index'
p1158
asbasbasbag68
(g84
g70
NtRp1159
(dp1160
g73
(dp1161
sg82
g845
sg75
(lp1162
g68
(g89
g70
NtRp1163
(dp1164
g73
(dp1165
g93
g94
ssg82
g1159
sg75
(lp1166
S'http_user_agent'
p1167
asbag68
(g89
g70
NtRp1168
(dp1169
g73
(dp1170
g100
g101
ssg82
g1159
sg75
(lp1171
S':'
asbag68
(g89
g70
NtRp1172
(dp1173
g73
(dp1174
sg82
g1159
sg75
(lp1175
g68
(g69
g70
NtRp1176
(dp1177
g73
(dp1178
g81
I4
ssg82
g1172
sg75
(lp1179
S'Mozilla/5.0 (X11; Ubuntu; Linux i686; rv:14.0) Gecko/20100101 Firefox/14.0.1'
p1180
asbasbasbag68
(g84
g70
NtRp1181
(dp1182
g73
(dp1183
sg82
g845
sg75
(lp1184
g68
(g89
g70
NtRp1185
(dp1186
g73
(dp1187
g93
g94
ssg82
g1181
sg75
(lp1188
S'is_jython'
p1189
asbag68
(g89
g70
NtRp1190
(dp1191
g73
(dp1192
g100
g101
ssg82
g1181
sg75
(lp1193
S':'
asbag68
(g89
g70
NtRp1194
(dp1195
g73
(dp1196
sg82
g1181
sg75
(lp1197
g68
(g69
g70
NtRp1198
(dp1199
g73
(dp1200
g81
I4
ssg82
g1194
sg75
(lp1201
g111
asbasbasbag68
(g84
g70
NtRp1202
(dp1203
g73
(dp1204
sg82
g845
sg75
(lp1205
g68
(g89
g70
NtRp1206
(dp1207
g73
(dp1208
g93
g94
ssg82
g1202
sg75
(lp1209
S'is_pypy'
p1210
asbag68
(g89
g70
NtRp1211
(dp1212
g73
(dp1213
g100
g101
ssg82
g1202
sg75
(lp1214
S':'
asbag68
(g89
g70
NtRp1215
(dp1216
g73
(dp1217
sg82
g1202
sg75
(lp1218
g68
(g69
g70
NtRp1219
(dp1220
g73
(dp1221
g81
I4
ssg82
g1215
sg75
(lp1222
g111
asbasbasbag68
(g84
g70
NtRp1223
(dp1224
g73
(dp1225
sg82
g845
sg75
(lp1226
g68
(g89
g70
NtRp1227
(dp1228
g73
(dp1229
g93
g94
ssg82
g1223
sg75
(lp1230
S'path_info'
p1231
asbag68
(g89
g70
NtRp1232
(dp1233
g73
(dp1234
g100
g101
ssg82
g1223
sg75
(lp1235
S':'
asbag68
(g89
g70
NtRp1236
(dp1237
g73
(dp1238
sg82
g1223
sg75
(lp1239
g68
(g69
g70
NtRp1240
(dp1241
g73
(dp1242
g81
I4
ssg82
g1236
sg75
(lp1243
S'/PhotoUpload/default/picture/4'
p1244
asbasbasbag68
(g84
g70
NtRp1245
(dp1246
g73
(dp1247
sg82
g845
sg75
(lp1248
g68
(g89
g70
NtRp1249
(dp1250
g73
(dp1251
g93
g94
ssg82
g1245
sg75
(lp1252
S'query_string'
p1253
asbag68
(g89
g70
NtRp1254
(dp1255
g73
(dp1256
g100
g101
ssg82
g1245
sg75
(lp1257
S':'
asbag68
(g89
g70
NtRp1258
(dp1259
g73
(dp1260
sg82
g1245
sg75
(lp1261
g68
(g69
g70
NtRp1262
(dp1263
g73
(dp1264
g81
I4
ssg82
g1258
sg75
(lp1265
S''
asbasbasbag68
(g84
g70
NtRp1266
(dp1267
g73
(dp1268
sg82
g845
sg75
(lp1269
g68
(g89
g70
NtRp1270
(dp1271
g73
(dp1272
g93
g94
ssg82
g1266
sg75
(lp1273
S'remote_addr'
p1274
asbag68
(g89
g70
NtRp1275
(dp1276
g73
(dp1277
g100
g101
ssg82
g1266
sg75
(lp1278
S':'
asbag68
(g89
g70
NtRp1279
(dp1280
g73
(dp1281
sg82
g1266
sg75
(lp1282
g68
(g69
g70
NtRp1283
(dp1284
g73
(dp1285
g81
I4
ssg82
g1279
sg75
(lp1286
g213
asbasbasbag68
(g84
g70
NtRp1287
(dp1288
g73
(dp1289
sg82
g845
sg75
(lp1290
g68
(g89
g70
NtRp1291
(dp1292
g73
(dp1293
g93
g94
ssg82
g1287
sg75
(lp1294
S'remote_port'
p1295
asbag68
(g89
g70
NtRp1296
(dp1297
g73
(dp1298
g100
g101
ssg82
g1287
sg75
(lp1299
S':'
asbag68
(g89
g70
NtRp1300
(dp1301
g73
(dp1302
sg82
g1287
sg75
(lp1303
g68
(g69
g70
NtRp1304
(dp1305
g73
(dp1306
g81
I4
ssg82
g1300
sg75
(lp1307
S'41018'
p1308
asbasbasbag68
(g84
g70
NtRp1309
(dp1310
g73
(dp1311
sg82
g845
sg75
(lp1312
g68
(g89
g70
NtRp1313
(dp1314
g73
(dp1315
g93
g94
ssg82
g1309
sg75
(lp1316
S'request_method'
p1317
asbag68
(g89
g70
NtRp1318
(dp1319
g73
(dp1320
g100
g101
ssg82
g1309
sg75
(lp1321
S':'
asbag68
(g89
g70
NtRp1322
(dp1323
g73
(dp1324
sg82
g1309
sg75
(lp1325
g68
(g69
g70
NtRp1326
(dp1327
g73
(dp1328
g81
I4
ssg82
g1322
sg75
(lp1329
S'GET'
p1330
asbasbasbag68
(g84
g70
NtRp1331
(dp1332
g73
(dp1333
sg82
g845
sg75
(lp1334
g68
(g89
g70
NtRp1335
(dp1336
g73
(dp1337
g93
g94
ssg82
g1331
sg75
(lp1338
S'script_name'
p1339
asbag68
(g89
g70
NtRp1340
(dp1341
g73
(dp1342
g100
g101
ssg82
g1331
sg75
(lp1343
S':'
asbag68
(g89
g70
NtRp1344
(dp1345
g73
(dp1346
sg82
g1331
sg75
(lp1347
g68
(g69
g70
NtRp1348
(dp1349
g73
(dp1350
g81
I4
ssg82
g1344
sg75
(lp1351
S''
asbasbasbag68
(g84
g70
NtRp1352
(dp1353
g73
(dp1354
sg82
g845
sg75
(lp1355
g68
(g89
g70
NtRp1356
(dp1357
g73
(dp1358
g93
g94
ssg82
g1352
sg75
(lp1359
S'server_name'
p1360
asbag68
(g89
g70
NtRp1361
(dp1362
g73
(dp1363
g100
g101
ssg82
g1352
sg75
(lp1364
S':'
asbag68
(g89
g70
NtRp1365
(dp1366
g73
(dp1367
sg82
g1352
sg75
(lp1368
g68
(g69
g70
NtRp1369
(dp1370
g73
(dp1371
g81
I4
ssg82
g1365
sg75
(lp1372
S'COMPAQ'
p1373
asbasbasbag68
(g84
g70
NtRp1374
(dp1375
g73
(dp1376
sg82
g845
sg75
(lp1377
g68
(g89
g70
NtRp1378
(dp1379
g73
(dp1380
g93
g94
ssg82
g1374
sg75
(lp1381
S'server_port'
p1382
asbag68
(g89
g70
NtRp1383
(dp1384
g73
(dp1385
g100
g101
ssg82
g1374
sg75
(lp1386
S':'
asbag68
(g89
g70
NtRp1387
(dp1388
g73
(dp1389
sg82
g1374
sg75
(lp1390
g68
(g69
g70
NtRp1391
(dp1392
g73
(dp1393
g81
I4
ssg82
g1387
sg75
(lp1394
S'8000'
p1395
asbasbasbag68
(g84
g70
NtRp1396
(dp1397
g73
(dp1398
sg82
g845
sg75
(lp1399
g68
(g89
g70
NtRp1400
(dp1401
g73
(dp1402
g93
g94
ssg82
g1396
sg75
(lp1403
S'server_protocol'
p1404
asbag68
(g89
g70
NtRp1405
(dp1406
g73
(dp1407
g100
g101
ssg82
g1396
sg75
(lp1408
S':'
asbag68
(g89
g70
NtRp1409
(dp1410
g73
(dp1411
sg82
g1396
sg75
(lp1412
g68
(g69
g70
NtRp1413
(dp1414
g73
(dp1415
g81
I4
ssg82
g1409
sg75
(lp1416
S'HTTP/1.1'
p1417
asbasbasbag68
(g84
g70
NtRp1418
(dp1419
g73
(dp1420
sg82
g845
sg75
(lp1421
g68
(g89
g70
NtRp1422
(dp1423
g73
(dp1424
g93
g94
ssg82
g1418
sg75
(lp1425
S'server_software'
p1426
asbag68
(g89
g70
NtRp1427
(dp1428
g73
(dp1429
g100
g101
ssg82
g1418
sg75
(lp1430
S':'
asbag68
(g89
g70
NtRp1431
(dp1432
g73
(dp1433
sg82
g1418
sg75
(lp1434
g68
(g69
g70
NtRp1435
(dp1436
g73
(dp1437
g81
I4
ssg82
g1431
sg75
(lp1438
S'Rocket 1.2.4'
p1439
asbasbasbag68
(g84
g70
NtRp1440
(dp1441
g73
(dp1442
sg82
g845
sg75
(lp1443
g68
(g89
g70
NtRp1444
(dp1445
g73
(dp1446
g93
g94
ssg82
g1440
sg75
(lp1447
S'web2py_crontype'
p1448
asbag68
(g89
g70
NtRp1449
(dp1450
g73
(dp1451
g100
g101
ssg82
g1440
sg75
(lp1452
S':'
asbag68
(g89
g70
NtRp1453
(dp1454
g73
(dp1455
sg82
g1440
sg75
(lp1456
g68
(g69
g70
NtRp1457
(dp1458
g73
(dp1459
g81
I4
ssg82
g1453
sg75
(lp1460
S'hard'
p1461
asbasbasbag68
(g84
g70
NtRp1462
(dp1463
g73
(dp1464
sg82
g845
sg75
(lp1465
g68
(g89
g70
NtRp1466
(dp1467
g73
(dp1468
g93
g94
ssg82
g1462
sg75
(lp1469
S'web2py_path'
p1470
asbag68
(g89
g70
NtRp1471
(dp1472
g73
(dp1473
g100
g101
ssg82
g1462
sg75
(lp1474
S':'
asbag68
(g89
g70
NtRp1475
(dp1476
g73
(dp1477
sg82
g1462
sg75
(lp1478
g68
(g69
g70
NtRp1479
(dp1480
g73
(dp1481
g81
I4
ssg82
g1475
sg75
(lp1482
g892
asbasbasbag68
(g84
g70
NtRp1483
(dp1484
g73
(dp1485
sg82
g845
sg75
(lp1486
g68
(g89
g70
NtRp1487
(dp1488
g73
(dp1489
g93
g94
ssg82
g1483
sg75
(lp1490
S'web2py_version'
p1491
asbag68
(g89
g70
NtRp1492
(dp1493
g73
(dp1494
g100
g101
ssg82
g1483
sg75
(lp1495
S':'
asbag68
(g89
g70
NtRp1496
(dp1497
g73
(dp1498
sg82
g1483
sg75
(lp1499
g68
(g69
g70
NtRp1500
(dp1501
g73
(dp1502
g81
I4
ssg82
g1496
sg75
(lp1503
g68
(g77
g70
NtRp1504
(dp1505
g73
(dp1506
g81
I3
ssg82
Nsg75
(lp1507
g68
(g84
g70
NtRp1508
(dp1509
g73
(dp1510
sg82
g1504
sg75
(lp1511
g68
(g89
g70
NtRp1512
(dp1513
g73
(dp1514
sg82
g1508
sg75
(lp1515
g68
(g69
g70
NtRp1516
(dp1517
g73
(dp1518
g81
I3
ssg82
g1512
sg75
(lp1519
S'1'
asbasbasbag68
(g84
g70
NtRp1520
(dp1521
g73
(dp1522
sg82
g1504
sg75
(lp1523
g68
(g89
g70
NtRp1524
(dp1525
g73
(dp1526
sg82
g1520
sg75
(lp1527
g68
(g69
g70
NtRp1528
(dp1529
g73
(dp1530
g81
I3
ssg82
g1524
sg75
(lp1531
S'99'
p1532
asbasbasbag68
(g84
g70
NtRp1533
(dp1534
g73
(dp1535
sg82
g1504
sg75
(lp1536
g68
(g89
g70
NtRp1537
(dp1538
g73
(dp1539
sg82
g1533
sg75
(lp1540
g68
(g69
g70
NtRp1541
(dp1542
g73
(dp1543
g81
I3
ssg82
g1537
sg75
(lp1544
S'7'
asbasbasbag68
(g84
g70
NtRp1545
(dp1546
g73
(dp1547
sg82
g1504
sg75
(lp1548
g68
(g89
g70
NtRp1549
(dp1550
g73
(dp1551
sg82
g1545
sg75
(lp1552
g68
(g69
g70
NtRp1553
(dp1554
g73
(dp1555
g81
I3
ssg82
g1549
sg75
(lp1556
S'datetime.datetime(2012, 3, 4, 22, 12, 8)'
p1557
asbasbasbag68
(g84
g70
NtRp1558
(dp1559
g73
(dp1560
sg82
g1504
sg75
(lp1561
g68
(g89
g70
NtRp1562
(dp1563
g73
(dp1564
sg82
g1558
sg75
(lp1565
g68
(g69
g70
NtRp1566
(dp1567
g73
(dp1568
g81
I3
ssg82
g1562
sg75
(lp1569
S'stable'
p1570
asbasbasbasbasbasbasbag68
(g84
g70
NtRp1571
(dp1572
g73
(dp1573
sg82
g845
sg75
(lp1574
g68
(g89
g70
NtRp1575
(dp1576
g73
(dp1577
g93
g94
ssg82
g1571
sg75
(lp1578
S'wsgi_errors'
p1579
asbag68
(g89
g70
NtRp1580
(dp1581
g73
(dp1582
g100
g101
ssg82
g1571
sg75
(lp1583
S':'
asbag68
(g89
g70
NtRp1584
(dp1585
g73
(dp1586
sg82
g1571
sg75
(lp1587
g68
(g69
g70
NtRp1588
(dp1589
g73
(dp1590
g81
I4
ssg82
g1584
sg75
(lp1591
S"<open file '<stderr>', mode 'w' at 0xb73250d0>"
p1592
asbasbasbag68
(g84
g70
NtRp1593
(dp1594
g73
(dp1595
sg82
g845
sg75
(lp1596
g68
(g89
g70
NtRp1597
(dp1598
g73
(dp1599
g93
g94
ssg82
g1593
sg75
(lp1600
S'wsgi_file_wrapper'
p1601
asbag68
(g89
g70
NtRp1602
(dp1603
g73
(dp1604
g100
g101
ssg82
g1593
sg75
(lp1605
S':'
asbag68
(g89
g70
NtRp1606
(dp1607
g73
(dp1608
sg82
g1593
sg75
(lp1609
g68
(g69
g70
NtRp1610
(dp1611
g73
(dp1612
g81
I4
ssg82
g1606
sg75
(lp1613
S'<class wsgiref.util.FileWrapper at 0xa507e3c>'
p1614
asbasbasbag68
(g84
g70
NtRp1615
(dp1616
g73
(dp1617
sg82
g845
sg75
(lp1618
g68
(g89
g70
NtRp1619
(dp1620
g73
(dp1621
g93
g94
ssg82
g1615
sg75
(lp1622
S'wsgi_input'
p1623
asbag68
(g89
g70
NtRp1624
(dp1625
g73
(dp1626
g100
g101
ssg82
g1615
sg75
(lp1627
S':'
asbag68
(g89
g70
NtRp1628
(dp1629
g73
(dp1630
sg82
g1615
sg75
(lp1631
g68
(g69
g70
NtRp1632
(dp1633
g73
(dp1634
g81
I4
ssg82
g1628
sg75
(lp1635
S'<socket._fileobject object at 0xa8b92ac>'
p1636
asbasbasbag68
(g84
g70
NtRp1637
(dp1638
g73
(dp1639
sg82
g845
sg75
(lp1640
g68
(g89
g70
NtRp1641
(dp1642
g73
(dp1643
g93
g94
ssg82
g1637
sg75
(lp1644
S'wsgi_multiprocess'
p1645
asbag68
(g89
g70
NtRp1646
(dp1647
g73
(dp1648
g100
g101
ssg82
g1637
sg75
(lp1649
S':'
asbag68
(g89
g70
NtRp1650
(dp1651
g73
(dp1652
sg82
g1637
sg75
(lp1653
g68
(g69
g70
NtRp1654
(dp1655
g73
(dp1656
g81
I4
ssg82
g1650
sg75
(lp1657
g111
asbasbasbag68
(g84
g70
NtRp1658
(dp1659
g73
(dp1660
sg82
g845
sg75
(lp1661
g68
(g89
g70
NtRp1662
(dp1663
g73
(dp1664
g93
g94
ssg82
g1658
sg75
(lp1665
S'wsgi_multithread'
p1666
asbag68
(g89
g70
NtRp1667
(dp1668
g73
(dp1669
g100
g101
ssg82
g1658
sg75
(lp1670
S':'
asbag68
(g89
g70
NtRp1671
(dp1672
g73
(dp1673
sg82
g1658
sg75
(lp1674
g68
(g69
g70
NtRp1675
(dp1676
g73
(dp1677
g81
I4
ssg82
g1671
sg75
(lp1678
S'True'
p1679
asbasbasbag68
(g84
g70
NtRp1680
(dp1681
g73
(dp1682
sg82
g845
sg75
(lp1683
g68
(g89
g70
NtRp1684
(dp1685
g73
(dp1686
g93
g94
ssg82
g1680
sg75
(lp1687
S'wsgi_run_once'
p1688
asbag68
(g89
g70
NtRp1689
(dp1690
g73
(dp1691
g100
g101
ssg82
g1680
sg75
(lp1692
S':'
asbag68
(g89
g70
NtRp1693
(dp1694
g73
(dp1695
sg82
g1680
sg75
(lp1696
g68
(g69
g70
NtRp1697
(dp1698
g73
(dp1699
g81
I4
ssg82
g1693
sg75
(lp1700
g111
asbasbasbag68
(g84
g70
NtRp1701
(dp1702
g73
(dp1703
sg82
g845
sg75
(lp1704
g68
(g89
g70
NtRp1705
(dp1706
g73
(dp1707
g93
g94
ssg82
g1701
sg75
(lp1708
S'wsgi_url_scheme'
p1709
asbag68
(g89
g70
NtRp1710
(dp1711
g73
(dp1712
g100
g101
ssg82
g1701
sg75
(lp1713
S':'
asbag68
(g89
g70
NtRp1714
(dp1715
g73
(dp1716
sg82
g1701
sg75
(lp1717
g68
(g69
g70
NtRp1718
(dp1719
g73
(dp1720
g81
I4
ssg82
g1714
sg75
(lp1721
S'http'
p1722
asbasbasbag68
(g84
g70
NtRp1723
(dp1724
g73
(dp1725
sg82
g845
sg75
(lp1726
g68
(g89
g70
NtRp1727
(dp1728
g73
(dp1729
g93
g94
ssg82
g1723
sg75
(lp1730
S'wsgi_version'
p1731
asbag68
(g89
g70
NtRp1732
(dp1733
g73
(dp1734
g100
g101
ssg82
g1723
sg75
(lp1735
S':'
asbag68
(g89
g70
NtRp1736
(dp1737
g73
(dp1738
sg82
g1723
sg75
(lp1739
g68
(g69
g70
NtRp1740
(dp1741
g73
(dp1742
g81
I4
ssg82
g1736
sg75
(lp1743
g68
(g77
g70
NtRp1744
(dp1745
g73
(dp1746
g81
I3
ssg82
Nsg75
(lp1747
g68
(g84
g70
NtRp1748
(dp1749
g73
(dp1750
sg82
g1744
sg75
(lp1751
g68
(g89
g70
NtRp1752
(dp1753
g73
(dp1754
sg82
g1748
sg75
(lp1755
g68
(g69
g70
NtRp1756
(dp1757
g73
(dp1758
g81
I3
ssg82
g1752
sg75
(lp1759
S'1'
asbasbasbag68
(g84
g70
NtRp1760
(dp1761
g73
(dp1762
sg82
g1744
sg75
(lp1763
g68
(g89
g70
NtRp1764
(dp1765
g73
(dp1766
sg82
g1760
sg75
(lp1767
g68
(g69
g70
NtRp1768
(dp1769
g73
(dp1770
g81
I3
ssg82
g1764
sg75
(lp1771
S'0'
asbasbasbasbasbasbasbasbasbasbasbag68
(g84
g70
NtRp1772
(dp1773
g73
(dp1774
sg82
g78
sg75
(lp1775
g68
(g89
g70
NtRp1776
(dp1777
g73
(dp1778
g93
g94
ssg82
g1772
sg75
(lp1779
S'extension'
p1780
asbag68
(g89
g70
NtRp1781
(dp1782
g73
(dp1783
g100
g101
ssg82
g1772
sg75
(lp1784
S':'
asbag68
(g89
g70
NtRp1785
(dp1786
g73
(dp1787
sg82
g1772
sg75
(lp1788
g68
(g69
g70
NtRp1789
(dp1790
g73
(dp1791
g81
I5
ssg82
g1785
sg75
(lp1792
S'html'
p1793
asbasbasbag68
(g84
g70
NtRp1794
(dp1795
g73
(dp1796
sg82
g78
sg75
(lp1797
g68
(g89
g70
NtRp1798
(dp1799
g73
(dp1800
g93
g94
ssg82
g1794
sg75
(lp1801
S'folder'
p1802
asbag68
(g89
g70
NtRp1803
(dp1804
g73
(dp1805
g100
g101
ssg82
g1794
sg75
(lp1806
S':'
asbag68
(g89
g70
NtRp1807
(dp1808
g73
(dp1809
sg82
g1794
sg75
(lp1810
g68
(g69
g70
NtRp1811
(dp1812
g73
(dp1813
g81
I5
ssg82
g1807
sg75
(lp1814
S'/home/anu/Desktop/M12/ssad m12/web2py/applications/PhotoUpload/'
p1815
asbasbasbag68
(g84
g70
NtRp1816
(dp1817
g73
(dp1818
sg82
g78
sg75
(lp1819
g68
(g89
g70
NtRp1820
(dp1821
g73
(dp1822
g93
g94
ssg82
g1816
sg75
(lp1823
S'function'
p1824
asbag68
(g89
g70
NtRp1825
(dp1826
g73
(dp1827
g100
g101
ssg82
g1816
sg75
(lp1828
S':'
asbag68
(g89
g70
NtRp1829
(dp1830
g73
(dp1831
sg82
g1816
sg75
(lp1832
g68
(g69
g70
NtRp1833
(dp1834
g73
(dp1835
g81
I5
ssg82
g1829
sg75
(lp1836
S'picture'
p1837
asbasbasbag68
(g84
g70
NtRp1838
(dp1839
g73
(dp1840
sg82
g78
sg75
(lp1841
g68
(g89
g70
NtRp1842
(dp1843
g73
(dp1844
g93
g94
ssg82
g1838
sg75
(lp1845
S'get_vars'
p1846
asbag68
(g89
g70
NtRp1847
(dp1848
g73
(dp1849
g100
g101
ssg82
g1838
sg75
(lp1850
S':'
asbag68
(g89
g70
NtRp1851
(dp1852
g73
(dp1853
sg82
g1838
sg75
(lp1854
g68
(g69
g70
NtRp1855
(dp1856
g73
(dp1857
g81
I5
ssg82
g1851
sg75
(lp1858
g68
(g77
g70
NtRp1859
(dp1860
g73
(dp1861
g81
I4
ssg82
Nsg75
(lp1862
sbasbasbasbag68
(g84
g70
NtRp1863
(dp1864
g73
(dp1865
sg82
g78
sg75
(lp1866
g68
(g89
g70
NtRp1867
(dp1868
g73
(dp1869
g93
g94
ssg82
g1863
sg75
(lp1870
S'global_settings'
p1871
asbag68
(g89
g70
NtRp1872
(dp1873
g73
(dp1874
g100
g101
ssg82
g1863
sg75
(lp1875
S':'
asbag68
(g89
g70
NtRp1876
(dp1877
g73
(dp1878
sg82
g1863
sg75
(lp1879
g68
(g69
g70
NtRp1880
(dp1881
g73
(dp1882
g81
I5
ssg82
g1876
sg75
(lp1883
g68
(g77
g70
NtRp1884
(dp1885
g73
(dp1886
g81
I4
ssg82
Nsg75
(lp1887
g68
(g84
g70
NtRp1888
(dp1889
g73
(dp1890
sg82
g1884
sg75
(lp1891
g68
(g89
g70
NtRp1892
(dp1893
g73
(dp1894
g93
g94
ssg82
g1888
sg75
(lp1895
g857
asbag68
(g89
g70
NtRp1896
(dp1897
g73
(dp1898
g100
g101
ssg82
g1888
sg75
(lp1899
S':'
asbag68
(g89
g70
NtRp1900
(dp1901
g73
(dp1902
sg82
g1888
sg75
(lp1903
g68
(g69
g70
NtRp1904
(dp1905
g73
(dp1906
g81
I4
ssg82
g1900
sg75
(lp1907
S"set(['/home/anu/Desktop/M12/ssad m12/web2py/applications/PhotoUpload/', '/home/anu/Desktop/M12/ssad m12/web2py/applications/welcome/', '/home/anu/Desktop/M12/ssad m12/web2py/applications/admin/'])"
p1908
asbasbasbag68
(g84
g70
NtRp1909
(dp1910
g73
(dp1911
sg82
g1884
sg75
(lp1912
g68
(g89
g70
NtRp1913
(dp1914
g73
(dp1915
g93
g94
ssg82
g1909
sg75
(lp1916
g879
asbag68
(g89
g70
NtRp1917
(dp1918
g73
(dp1919
g100
g101
ssg82
g1909
sg75
(lp1920
S':'
asbag68
(g89
g70
NtRp1921
(dp1922
g73
(dp1923
sg82
g1909
sg75
(lp1924
g68
(g69
g70
NtRp1925
(dp1926
g73
(dp1927
g81
I4
ssg82
g1921
sg75
(lp1928
g892
asbasbasbag68
(g84
g70
NtRp1929
(dp1930
g73
(dp1931
sg82
g1884
sg75
(lp1932
g68
(g89
g70
NtRp1933
(dp1934
g73
(dp1935
g93
g94
ssg82
g1929
sg75
(lp1936
g901
asbag68
(g89
g70
NtRp1937
(dp1938
g73
(dp1939
g100
g101
ssg82
g1929
sg75
(lp1940
S':'
asbag68
(g89
g70
NtRp1941
(dp1942
g73
(dp1943
sg82
g1929
sg75
(lp1944
g68
(g69
g70
NtRp1945
(dp1946
g73
(dp1947
g81
I4
ssg82
g1941
sg75
(lp1948
g68
(g77
g70
NtRp1949
(dp1950
g73
(dp1951
g81
I3
ssg82
Nsg75
(lp1952
sbasbasbasbag68
(g84
g70
NtRp1953
(dp1954
g73
(dp1955
sg82
g1884
sg75
(lp1956
g68
(g89
g70
NtRp1957
(dp1958
g73
(dp1959
g93
g94
ssg82
g1953
sg75
(lp1960
g926
asbag68
(g89
g70
NtRp1961
(dp1962
g73
(dp1963
g100
g101
ssg82
g1953
sg75
(lp1964
S':'
asbag68
(g89
g70
NtRp1965
(dp1966
g73
(dp1967
sg82
g1953
sg75
(lp1968
g68
(g69
g70
NtRp1969
(dp1970
g73
(dp1971
g81
I4
ssg82
g1965
sg75
(lp1972
S"<Values at 0xa53186c: {'verbose': False, 'ip': '127.0.0.1', 'shutdown_timeout': 5, 'taskbar': False, 'nocron': False, 'pid_filename': 'httpserver.pid', 'maxthreads': None, 'softcron': False, 'server_name': 'COMPAQ', 'bpython': False, 'nogui': False, 'port': 8000, 'extcron': False, 'debuglevel': 30, 'test': None, 'folder': '/home/anu/Desktop/M12/ssad m12/web2py', 'config': '', 'import_models': False, 'winservice': '', 'shell': None, 'run': '', 'log_filename': 'httpserver.log', 'args': [''], 'socket_timeout': 5, 'ssl_ca_certificate': None, 'scheduler': None, 'profiler_filename': None, 'ssl_private_key': '', 'password': 'anu', 'request_queue_size': 5, 'ssl_certificate': '', 'cronjob': False, 'numthreads': None, 'quiet': False, 'interfaces': None, 'minthreads': None, 'timeout': 10, 'plain': False, 'nobanner': False}>"
p1973
asbasbasbag68
(g84
g70
NtRp1974
(dp1975
g73
(dp1976
sg82
g1884
sg75
(lp1977
g68
(g89
g70
NtRp1978
(dp1979
g73
(dp1980
g93
g94
ssg82
g1974
sg75
(lp1981
g948
asbag68
(g89
g70
NtRp1982
(dp1983
g73
(dp1984
g100
g101
ssg82
g1974
sg75
(lp1985
S':'
asbag68
(g89
g70
NtRp1986
(dp1987
g73
(dp1988
sg82
g1974
sg75
(lp1989
g68
(g69
g70
NtRp1990
(dp1991
g73
(dp1992
g81
I4
ssg82
g1986
sg75
(lp1993
S'set([])'
p1994
asbasbasbag68
(g84
g70
NtRp1995
(dp1996
g73
(dp1997
sg82
g1884
sg75
(lp1998
g68
(g89
g70
NtRp1999
(dp2000
g73
(dp2001
g93
g94
ssg82
g1995
sg75
(lp2002
g970
asbag68
(g89
g70
NtRp2003
(dp2004
g73
(dp2005
g100
g101
ssg82
g1995
sg75
(lp2006
S':'
asbag68
(g89
g70
NtRp2007
(dp2008
g73
(dp2009
sg82
g1995
sg75
(lp2010
g68
(g69
g70
NtRp2011
(dp2012
g73
(dp2013
g81
I4
ssg82
g2007
sg75
(lp2014
g111
asbasbasbag68
(g84
g70
NtRp2015
(dp2016
g73
(dp2017
sg82
g1884
sg75
(lp2018
g68
(g89
g70
NtRp2019
(dp2020
g73
(dp2021
g93
g94
ssg82
g2015
sg75
(lp2022
g991
asbag68
(g89
g70
NtRp2023
(dp2024
g73
(dp2025
g100
g101
ssg82
g2015
sg75
(lp2026
S':'
asbag68
(g89
g70
NtRp2027
(dp2028
g73
(dp2029
sg82
g2015
sg75
(lp2030
g68
(g69
g70
NtRp2031
(dp2032
g73
(dp2033
g81
I4
ssg82
g2027
sg75
(lp2034
g1004
asbasbasbag68
(g84
g70
NtRp2035
(dp2036
g73
(dp2037
sg82
g1884
sg75
(lp2038
g68
(g89
g70
NtRp2039
(dp2040
g73
(dp2041
g93
g94
ssg82
g2035
sg75
(lp2042
g1189
asbag68
(g89
g70
NtRp2043
(dp2044
g73
(dp2045
g100
g101
ssg82
g2035
sg75
(lp2046
S':'
asbag68
(g89
g70
NtRp2047
(dp2048
g73
(dp2049
sg82
g2035
sg75
(lp2050
g68
(g69
g70
NtRp2051
(dp2052
g73
(dp2053
g81
I4
ssg82
g2047
sg75
(lp2054
g111
asbasbasbag68
(g84
g70
NtRp2055
(dp2056
g73
(dp2057
sg82
g1884
sg75
(lp2058
g68
(g89
g70
NtRp2059
(dp2060
g73
(dp2061
g93
g94
ssg82
g2055
sg75
(lp2062
g1210
asbag68
(g89
g70
NtRp2063
(dp2064
g73
(dp2065
g100
g101
ssg82
g2055
sg75
(lp2066
S':'
asbag68
(g89
g70
NtRp2067
(dp2068
g73
(dp2069
sg82
g2055
sg75
(lp2070
g68
(g69
g70
NtRp2071
(dp2072
g73
(dp2073
g81
I4
ssg82
g2067
sg75
(lp2074
g111
asbasbasbag68
(g84
g70
NtRp2075
(dp2076
g73
(dp2077
sg82
g1884
sg75
(lp2078
g68
(g89
g70
NtRp2079
(dp2080
g73
(dp2081
g93
g94
ssg82
g2075
sg75
(lp2082
g1448
asbag68
(g89
g70
NtRp2083
(dp2084
g73
(dp2085
g100
g101
ssg82
g2075
sg75
(lp2086
S':'
asbag68
(g89
g70
NtRp2087
(dp2088
g73
(dp2089
sg82
g2075
sg75
(lp2090
g68
(g69
g70
NtRp2091
(dp2092
g73
(dp2093
g81
I4
ssg82
g2087
sg75
(lp2094
g1461
asbasbasbag68
(g84
g70
NtRp2095
(dp2096
g73
(dp2097
sg82
g1884
sg75
(lp2098
g68
(g89
g70
NtRp2099
(dp2100
g73
(dp2101
g93
g94
ssg82
g2095
sg75
(lp2102
g1491
asbag68
(g89
g70
NtRp2103
(dp2104
g73
(dp2105
g100
g101
ssg82
g2095
sg75
(lp2106
S':'
asbag68
(g89
g70
NtRp2107
(dp2108
g73
(dp2109
sg82
g2095
sg75
(lp2110
g68
(g69
g70
NtRp2111
(dp2112
g73
(dp2113
g81
I4
ssg82
g2107
sg75
(lp2114
g68
(g77
g70
NtRp2115
(dp2116
g73
(dp2117
g81
I3
ssg82
Nsg75
(lp2118
g68
(g84
g70
NtRp2119
(dp2120
g73
(dp2121
sg82
g2115
sg75
(lp2122
g68
(g89
g70
NtRp2123
(dp2124
g73
(dp2125
sg82
g2119
sg75
(lp2126
g68
(g69
g70
NtRp2127
(dp2128
g73
(dp2129
g81
I3
ssg82
g2123
sg75
(lp2130
S'1'
asbasbasbag68
(g84
g70
NtRp2131
(dp2132
g73
(dp2133
sg82
g2115
sg75
(lp2134
g68
(g89
g70
NtRp2135
(dp2136
g73
(dp2137
sg82
g2131
sg75
(lp2138
g68
(g69
g70
NtRp2139
(dp2140
g73
(dp2141
g81
I3
ssg82
g2135
sg75
(lp2142
S'99'
p2143
asbasbasbag68
(g84
g70
NtRp2144
(dp2145
g73
(dp2146
sg82
g2115
sg75
(lp2147
g68
(g89
g70
NtRp2148
(dp2149
g73
(dp2150
sg82
g2144
sg75
(lp2151
g68
(g69
g70
NtRp2152
(dp2153
g73
(dp2154
g81
I3
ssg82
g2148
sg75
(lp2155
S'7'
asbasbasbag68
(g84
g70
NtRp2156
(dp2157
g73
(dp2158
sg82
g2115
sg75
(lp2159
g68
(g89
g70
NtRp2160
(dp2161
g73
(dp2162
sg82
g2156
sg75
(lp2163
g68
(g69
g70
NtRp2164
(dp2165
g73
(dp2166
g81
I3
ssg82
g2160
sg75
(lp2167
S'datetime.datetime(2012, 3, 4, 22, 12, 8)'
p2168
asbasbasbag68
(g84
g70
NtRp2169
(dp2170
g73
(dp2171
sg82
g2115
sg75
(lp2172
g68
(g89
g70
NtRp2173
(dp2174
g73
(dp2175
sg82
g2169
sg75
(lp2176
g68
(g69
g70
NtRp2177
(dp2178
g73
(dp2179
g81
I3
ssg82
g2173
sg75
(lp2180
g1570
asbasbasbasbasbasbasbasbasbasbasbag68
(g84
g70
NtRp2181
(dp2182
g73
(dp2183
sg82
g78
sg75
(lp2184
g68
(g89
g70
NtRp2185
(dp2186
g73
(dp2187
g93
g94
ssg82
g2181
sg75
(lp2188
S'is_https'
p2189
asbag68
(g89
g70
NtRp2190
(dp2191
g73
(dp2192
g100
g101
ssg82
g2181
sg75
(lp2193
S':'
asbag68
(g89
g70
NtRp2194
(dp2195
g73
(dp2196
sg82
g2181
sg75
(lp2197
g68
(g69
g70
NtRp2198
(dp2199
g73
(dp2200
g81
I5
ssg82
g2194
sg75
(lp2201
g111
asbasbasbag68
(g84
g70
NtRp2202
(dp2203
g73
(dp2204
sg82
g78
sg75
(lp2205
g68
(g89
g70
NtRp2206
(dp2207
g73
(dp2208
g93
g94
ssg82
g2202
sg75
(lp2209
S'is_local'
p2210
asbag68
(g89
g70
NtRp2211
(dp2212
g73
(dp2213
g100
g101
ssg82
g2202
sg75
(lp2214
S':'
asbag68
(g89
g70
NtRp2215
(dp2216
g73
(dp2217
sg82
g2202
sg75
(lp2218
g68
(g69
g70
NtRp2219
(dp2220
g73
(dp2221
g81
I5
ssg82
g2215
sg75
(lp2222
g1679
asbasbasbag68
(g84
g70
NtRp2223
(dp2224
g73
(dp2225
sg82
g78
sg75
(lp2226
g68
(g89
g70
NtRp2227
(dp2228
g73
(dp2229
g93
g94
ssg82
g2223
sg75
(lp2230
S'is_restful'
p2231
asbag68
(g89
g70
NtRp2232
(dp2233
g73
(dp2234
g100
g101
ssg82
g2223
sg75
(lp2235
S':'
asbag68
(g89
g70
NtRp2236
(dp2237
g73
(dp2238
sg82
g2223
sg75
(lp2239
g68
(g69
g70
NtRp2240
(dp2241
g73
(dp2242
g81
I5
ssg82
g2236
sg75
(lp2243
g111
asbasbasbag68
(g84
g70
NtRp2244
(dp2245
g73
(dp2246
sg82
g78
sg75
(lp2247
g68
(g89
g70
NtRp2248
(dp2249
g73
(dp2250
g93
g94
ssg82
g2244
sg75
(lp2251
S'now'
p2252
asbag68
(g89
g70
NtRp2253
(dp2254
g73
(dp2255
g100
g101
ssg82
g2244
sg75
(lp2256
S':'
asbag68
(g89
g70
NtRp2257
(dp2258
g73
(dp2259
sg82
g2244
sg75
(lp2260
g68
(g69
g70
NtRp2261
(dp2262
g73
(dp2263
g81
I5
ssg82
g2257
sg75
(lp2264
S'datetime.datetime(2012, 8, 30, 21, 27, 46, 908521)'
p2265
asbasbasbag68
(g84
g70
NtRp2266
(dp2267
g73
(dp2268
sg82
g78
sg75
(lp2269
g68
(g89
g70
NtRp2270
(dp2271
g73
(dp2272
g93
g94
ssg82
g2266
sg75
(lp2273
S'post_vars'
p2274
asbag68
(g89
g70
NtRp2275
(dp2276
g73
(dp2277
g100
g101
ssg82
g2266
sg75
(lp2278
S':'
asbag68
(g89
g70
NtRp2279
(dp2280
g73
(dp2281
sg82
g2266
sg75
(lp2282
g68
(g69
g70
NtRp2283
(dp2284
g73
(dp2285
g81
I5
ssg82
g2279
sg75
(lp2286
g68
(g77
g70
NtRp2287
(dp2288
g73
(dp2289
g81
I4
ssg82
Nsg75
(lp2290
sbasbasbasbag68
(g84
g70
NtRp2291
(dp2292
g73
(dp2293
sg82
g78
sg75
(lp2294
g68
(g89
g70
NtRp2295
(dp2296
g73
(dp2297
g93
g94
ssg82
g2291
sg75
(lp2298
S'raw_args'
p2299
asbag68
(g89
g70
NtRp2300
(dp2301
g73
(dp2302
g100
g101
ssg82
g2291
sg75
(lp2303
S':'
asbag68
(g89
g70
NtRp2304
(dp2305
g73
(dp2306
sg82
g2291
sg75
(lp2307
g68
(g69
g70
NtRp2308
(dp2309
g73
(dp2310
g81
I5
ssg82
g2304
sg75
(lp2311
S'4'
asbasbasbag68
(g84
g70
NtRp2312
(dp2313
g73
(dp2314
sg82
g78
sg75
(lp2315
g68
(g89
g70
NtRp2316
(dp2317
g73
(dp2318
g93
g94
ssg82
g2312
sg75
(lp2319
S'url'
p2320
asbag68
(g89
g70
NtRp2321
(dp2322
g73
(dp2323
g100
g101
ssg82
g2312
sg75
(lp2324
S':'
asbag68
(g89
g70
NtRp2325
(dp2326
g73
(dp2327
sg82
g2312
sg75
(lp2328
g68
(g69
g70
NtRp2329
(dp2330
g73
(dp2331
g81
I5
ssg82
g2325
sg75
(lp2332
S'/PhotoUpload/default/picture/4'
p2333
asbasbasbag68
(g84
g70
NtRp2334
(dp2335
g73
(dp2336
sg82
g78
sg75
(lp2337
g68
(g89
g70
NtRp2338
(dp2339
g73
(dp2340
g93
g94
ssg82
g2334
sg75
(lp2341
S'utcnow'
p2342
asbag68
(g89
g70
NtRp2343
(dp2344
g73
(dp2345
g100
g101
ssg82
g2334
sg75
(lp2346
S':'
asbag68
(g89
g70
NtRp2347
(dp2348
g73
(dp2349
sg82
g2334
sg75
(lp2350
g68
(g69
g70
NtRp2351
(dp2352
g73
(dp2353
g81
I5
ssg82
g2347
sg75
(lp2354
S'datetime.datetime(2012, 8, 30, 15, 57, 46, 908603)'
p2355
asbasbasbag68
(g84
g70
NtRp2356
(dp2357
g73
(dp2358
sg82
g78
sg75
(lp2359
g68
(g89
g70
NtRp2360
(dp2361
g73
(dp2362
g93
g94
ssg82
g2356
sg75
(lp2363
S'uuid'
p2364
asbag68
(g89
g70
NtRp2365
(dp2366
g73
(dp2367
g100
g101
ssg82
g2356
sg75
(lp2368
S':'
asbag68
(g89
g70
NtRp2369
(dp2370
g73
(dp2371
sg82
g2356
sg75
(lp2372
g68
(g69
g70
NtRp2373
(dp2374
g73
(dp2375
g81
I5
ssg82
g2369
sg75
(lp2376
S'PhotoUpload/127.0.0.1.2012-08-30.21-27-46.f6e86bb7-1f4a-4ed0-b966-2881594aa952'
p2377
asbasbasbag68
(g84
g70
NtRp2378
(dp2379
g73
(dp2380
sg82
g78
sg75
(lp2381
g68
(g89
g70
NtRp2382
(dp2383
g73
(dp2384
g93
g94
ssg82
g2378
sg75
(lp2385
S'vars'
p2386
asbag68
(g89
g70
NtRp2387
(dp2388
g73
(dp2389
g100
g101
ssg82
g2378
sg75
(lp2390
S':'
asbag68
(g89
g70
NtRp2391
(dp2392
g73
(dp2393
sg82
g2378
sg75
(lp2394
g68
(g69
g70
NtRp2395
(dp2396
g73
(dp2397
g81
I5
ssg82
g2391
sg75
(lp2398
g68
(g77
g70
NtRp2399
(dp2400
g73
(dp2401
g81
I4
ssg82
Nsg75
(lp2402
sbasbasbasbag68
(g84
g70
NtRp2403
(dp2404
g73
(dp2405
sg82
g78
sg75
(lp2406
g68
(g89
g70
NtRp2407
(dp2408
g73
(dp2409
g93
g94
ssg82
g2403
sg75
(lp2410
S'wsgi'
p2411
asbag68
(g89
g70
NtRp2412
(dp2413
g73
(dp2414
g100
g101
ssg82
g2403
sg75
(lp2415
S':'
asbag68
(g89
g70
NtRp2416
(dp2417
g73
(dp2418
sg82
g2403
sg75
(lp2419
g68
(g69
g70
NtRp2420
(dp2421
g73
(dp2422
g81
I5
ssg82
g2416
sg75
(lp2423
g68
(g77
g70
NtRp2424
(dp2425
g73
(dp2426
g81
I4
ssg82
Nsg75
(lp2427
g68
(g84
g70
NtRp2428
(dp2429
g73
(dp2430
sg82
g2424
sg75
(lp2431
g68
(g89
g70
NtRp2432
(dp2433
g73
(dp2434
g93
g94
ssg82
g2428
sg75
(lp2435
S'environ'
p2436
asbag68
(g89
g70
NtRp2437
(dp2438
g73
(dp2439
g100
g101
ssg82
g2428
sg75
(lp2440
S':'
asbag68
(g89
g70
NtRp2441
(dp2442
g73
(dp2443
sg82
g2428
sg75
(lp2444
g68
(g69
g70
NtRp2445
(dp2446
g73
(dp2447
g81
I4
ssg82
g2441
sg75
(lp2448
g68
(g77
g70
NtRp2449
(dp2450
g73
(dp2451
g81
I3
ssg82
Nsg75
(lp2452
g68
(g84
g70
NtRp2453
(dp2454
g73
(dp2455
sg82
g2449
sg75
(lp2456
g68
(g89
g70
NtRp2457
(dp2458
g73
(dp2459
g93
g94
ssg82
g2453
sg75
(lp2460
S'HTTP_ACCEPT'
p2461
asbag68
(g89
g70
NtRp2462
(dp2463
g73
(dp2464
g100
g101
ssg82
g2453
sg75
(lp2465
S':'
asbag68
(g89
g70
NtRp2466
(dp2467
g73
(dp2468
sg82
g2453
sg75
(lp2469
g68
(g69
g70
NtRp2470
(dp2471
g73
(dp2472
g81
I3
ssg82
g2466
sg75
(lp2473
g1026
asbasbasbag68
(g84
g70
NtRp2474
(dp2475
g73
(dp2476
sg82
g2449
sg75
(lp2477
g68
(g89
g70
NtRp2478
(dp2479
g73
(dp2480
g93
g94
ssg82
g2474
sg75
(lp2481
S'HTTP_ACCEPT_ENCODING'
p2482
asbag68
(g89
g70
NtRp2483
(dp2484
g73
(dp2485
g100
g101
ssg82
g2474
sg75
(lp2486
S':'
asbag68
(g89
g70
NtRp2487
(dp2488
g73
(dp2489
sg82
g2474
sg75
(lp2490
g68
(g69
g70
NtRp2491
(dp2492
g73
(dp2493
g81
I3
ssg82
g2487
sg75
(lp2494
g1048
asbasbasbag68
(g84
g70
NtRp2495
(dp2496
g73
(dp2497
sg82
g2449
sg75
(lp2498
g68
(g89
g70
NtRp2499
(dp2500
g73
(dp2501
g93
g94
ssg82
g2495
sg75
(lp2502
S'HTTP_ACCEPT_LANGUAGE'
p2503
asbag68
(g89
g70
NtRp2504
(dp2505
g73
(dp2506
g100
g101
ssg82
g2495
sg75
(lp2507
S':'
asbag68
(g89
g70
NtRp2508
(dp2509
g73
(dp2510
sg82
g2495
sg75
(lp2511
g68
(g69
g70
NtRp2512
(dp2513
g73
(dp2514
g81
I3
ssg82
g2508
sg75
(lp2515
g1070
asbasbasbag68
(g84
g70
NtRp2516
(dp2517
g73
(dp2518
sg82
g2449
sg75
(lp2519
g68
(g89
g70
NtRp2520
(dp2521
g73
(dp2522
g93
g94
ssg82
g2516
sg75
(lp2523
S'HTTP_CONNECTION'
p2524
asbag68
(g89
g70
NtRp2525
(dp2526
g73
(dp2527
g100
g101
ssg82
g2516
sg75
(lp2528
S':'
asbag68
(g89
g70
NtRp2529
(dp2530
g73
(dp2531
sg82
g2516
sg75
(lp2532
g68
(g69
g70
NtRp2533
(dp2534
g73
(dp2535
g81
I3
ssg82
g2529
sg75
(lp2536
g1092
asbasbasbag68
(g84
g70
NtRp2537
(dp2538
g73
(dp2539
sg82
g2449
sg75
(lp2540
g68
(g89
g70
NtRp2541
(dp2542
g73
(dp2543
g93
g94
ssg82
g2537
sg75
(lp2544
S'HTTP_COOKIE'
p2545
asbag68
(g89
g70
NtRp2546
(dp2547
g73
(dp2548
g100
g101
ssg82
g2537
sg75
(lp2549
S':'
asbag68
(g89
g70
NtRp2550
(dp2551
g73
(dp2552
sg82
g2537
sg75
(lp2553
g68
(g69
g70
NtRp2554
(dp2555
g73
(dp2556
g81
I3
ssg82
g2550
sg75
(lp2557
g1114
asbasbasbag68
(g84
g70
NtRp2558
(dp2559
g73
(dp2560
sg82
g2449
sg75
(lp2561
g68
(g89
g70
NtRp2562
(dp2563
g73
(dp2564
g93
g94
ssg82
g2558
sg75
(lp2565
S'HTTP_HOST'
p2566
asbag68
(g89
g70
NtRp2567
(dp2568
g73
(dp2569
g100
g101
ssg82
g2558
sg75
(lp2570
S':'
asbag68
(g89
g70
NtRp2571
(dp2572
g73
(dp2573
sg82
g2558
sg75
(lp2574
g68
(g69
g70
NtRp2575
(dp2576
g73
(dp2577
g81
I3
ssg82
g2571
sg75
(lp2578
g1136
asbasbasbag68
(g84
g70
NtRp2579
(dp2580
g73
(dp2581
sg82
g2449
sg75
(lp2582
g68
(g89
g70
NtRp2583
(dp2584
g73
(dp2585
g93
g94
ssg82
g2579
sg75
(lp2586
S'HTTP_REFERER'
p2587
asbag68
(g89
g70
NtRp2588
(dp2589
g73
(dp2590
g100
g101
ssg82
g2579
sg75
(lp2591
S':'
asbag68
(g89
g70
NtRp2592
(dp2593
g73
(dp2594
sg82
g2579
sg75
(lp2595
g68
(g69
g70
NtRp2596
(dp2597
g73
(dp2598
g81
I3
ssg82
g2592
sg75
(lp2599
g1158
asbasbasbag68
(g84
g70
NtRp2600
(dp2601
g73
(dp2602
sg82
g2449
sg75
(lp2603
g68
(g89
g70
NtRp2604
(dp2605
g73
(dp2606
g93
g94
ssg82
g2600
sg75
(lp2607
S'HTTP_USER_AGENT'
p2608
asbag68
(g89
g70
NtRp2609
(dp2610
g73
(dp2611
g100
g101
ssg82
g2600
sg75
(lp2612
S':'
asbag68
(g89
g70
NtRp2613
(dp2614
g73
(dp2615
sg82
g2600
sg75
(lp2616
g68
(g69
g70
NtRp2617
(dp2618
g73
(dp2619
g81
I3
ssg82
g2613
sg75
(lp2620
g1180
asbasbasbag68
(g84
g70
NtRp2621
(dp2622
g73
(dp2623
sg82
g2449
sg75
(lp2624
g68
(g89
g70
NtRp2625
(dp2626
g73
(dp2627
g93
g94
ssg82
g2621
sg75
(lp2628
S'PATH_INFO'
p2629
asbag68
(g89
g70
NtRp2630
(dp2631
g73
(dp2632
g100
g101
ssg82
g2621
sg75
(lp2633
S':'
asbag68
(g89
g70
NtRp2634
(dp2635
g73
(dp2636
sg82
g2621
sg75
(lp2637
g68
(g69
g70
NtRp2638
(dp2639
g73
(dp2640
g81
I3
ssg82
g2634
sg75
(lp2641
g1244
asbasbasbag68
(g84
g70
NtRp2642
(dp2643
g73
(dp2644
sg82
g2449
sg75
(lp2645
g68
(g89
g70
NtRp2646
(dp2647
g73
(dp2648
g93
g94
ssg82
g2642
sg75
(lp2649
S'QUERY_STRING'
p2650
asbag68
(g89
g70
NtRp2651
(dp2652
g73
(dp2653
g100
g101
ssg82
g2642
sg75
(lp2654
S':'
asbag68
(g89
g70
NtRp2655
(dp2656
g73
(dp2657
sg82
g2642
sg75
(lp2658
g68
(g69
g70
NtRp2659
(dp2660
g73
(dp2661
g81
I3
ssg82
g2655
sg75
(lp2662
S''
asbasbasbag68
(g84
g70
NtRp2663
(dp2664
g73
(dp2665
sg82
g2449
sg75
(lp2666
g68
(g89
g70
NtRp2667
(dp2668
g73
(dp2669
g93
g94
ssg82
g2663
sg75
(lp2670
S'REMOTE_ADDR'
p2671
asbag68
(g89
g70
NtRp2672
(dp2673
g73
(dp2674
g100
g101
ssg82
g2663
sg75
(lp2675
S':'
asbag68
(g89
g70
NtRp2676
(dp2677
g73
(dp2678
sg82
g2663
sg75
(lp2679
g68
(g69
g70
NtRp2680
(dp2681
g73
(dp2682
g81
I3
ssg82
g2676
sg75
(lp2683
g213
asbasbasbag68
(g84
g70
NtRp2684
(dp2685
g73
(dp2686
sg82
g2449
sg75
(lp2687
g68
(g89
g70
NtRp2688
(dp2689
g73
(dp2690
g93
g94
ssg82
g2684
sg75
(lp2691
S'REMOTE_PORT'
p2692
asbag68
(g89
g70
NtRp2693
(dp2694
g73
(dp2695
g100
g101
ssg82
g2684
sg75
(lp2696
S':'
asbag68
(g89
g70
NtRp2697
(dp2698
g73
(dp2699
sg82
g2684
sg75
(lp2700
g68
(g69
g70
NtRp2701
(dp2702
g73
(dp2703
g81
I3
ssg82
g2697
sg75
(lp2704
g1308
asbasbasbag68
(g84
g70
NtRp2705
(dp2706
g73
(dp2707
sg82
g2449
sg75
(lp2708
g68
(g89
g70
NtRp2709
(dp2710
g73
(dp2711
g93
g94
ssg82
g2705
sg75
(lp2712
S'REQUEST_METHOD'
p2713
asbag68
(g89
g70
NtRp2714
(dp2715
g73
(dp2716
g100
g101
ssg82
g2705
sg75
(lp2717
S':'
asbag68
(g89
g70
NtRp2718
(dp2719
g73
(dp2720
sg82
g2705
sg75
(lp2721
g68
(g69
g70
NtRp2722
(dp2723
g73
(dp2724
g81
I3
ssg82
g2718
sg75
(lp2725
g1330
asbasbasbag68
(g84
g70
NtRp2726
(dp2727
g73
(dp2728
sg82
g2449
sg75
(lp2729
g68
(g89
g70
NtRp2730
(dp2731
g73
(dp2732
g93
g94
ssg82
g2726
sg75
(lp2733
S'SCRIPT_NAME'
p2734
asbag68
(g89
g70
NtRp2735
(dp2736
g73
(dp2737
g100
g101
ssg82
g2726
sg75
(lp2738
S':'
asbag68
(g89
g70
NtRp2739
(dp2740
g73
(dp2741
sg82
g2726
sg75
(lp2742
g68
(g69
g70
NtRp2743
(dp2744
g73
(dp2745
g81
I3
ssg82
g2739
sg75
(lp2746
S''
asbasbasbag68
(g84
g70
NtRp2747
(dp2748
g73
(dp2749
sg82
g2449
sg75
(lp2750
g68
(g89
g70
NtRp2751
(dp2752
g73
(dp2753
g93
g94
ssg82
g2747
sg75
(lp2754
S'SERVER_NAME'
p2755
asbag68
(g89
g70
NtRp2756
(dp2757
g73
(dp2758
g100
g101
ssg82
g2747
sg75
(lp2759
S':'
asbag68
(g89
g70
NtRp2760
(dp2761
g73
(dp2762
sg82
g2747
sg75
(lp2763
g68
(g69
g70
NtRp2764
(dp2765
g73
(dp2766
g81
I3
ssg82
g2760
sg75
(lp2767
g1373
asbasbasbag68
(g84
g70
NtRp2768
(dp2769
g73
(dp2770
sg82
g2449
sg75
(lp2771
g68
(g89
g70
NtRp2772
(dp2773
g73
(dp2774
g93
g94
ssg82
g2768
sg75
(lp2775
S'SERVER_PORT'
p2776
asbag68
(g89
g70
NtRp2777
(dp2778
g73
(dp2779
g100
g101
ssg82
g2768
sg75
(lp2780
S':'
asbag68
(g89
g70
NtRp2781
(dp2782
g73
(dp2783
sg82
g2768
sg75
(lp2784
g68
(g69
g70
NtRp2785
(dp2786
g73
(dp2787
g81
I3
ssg82
g2781
sg75
(lp2788
g1395
asbasbasbag68
(g84
g70
NtRp2789
(dp2790
g73
(dp2791
sg82
g2449
sg75
(lp2792
g68
(g89
g70
NtRp2793
(dp2794
g73
(dp2795
g93
g94
ssg82
g2789
sg75
(lp2796
S'SERVER_PROTOCOL'
p2797
asbag68
(g89
g70
NtRp2798
(dp2799
g73
(dp2800
g100
g101
ssg82
g2789
sg75
(lp2801
S':'
asbag68
(g89
g70
NtRp2802
(dp2803
g73
(dp2804
sg82
g2789
sg75
(lp2805
g68
(g69
g70
NtRp2806
(dp2807
g73
(dp2808
g81
I3
ssg82
g2802
sg75
(lp2809
g1417
asbasbasbag68
(g84
g70
NtRp2810
(dp2811
g73
(dp2812
sg82
g2449
sg75
(lp2813
g68
(g89
g70
NtRp2814
(dp2815
g73
(dp2816
g93
g94
ssg82
g2810
sg75
(lp2817
S'SERVER_SOFTWARE'
p2818
asbag68
(g89
g70
NtRp2819
(dp2820
g73
(dp2821
g100
g101
ssg82
g2810
sg75
(lp2822
S':'
asbag68
(g89
g70
NtRp2823
(dp2824
g73
(dp2825
sg82
g2810
sg75
(lp2826
g68
(g69
g70
NtRp2827
(dp2828
g73
(dp2829
g81
I3
ssg82
g2823
sg75
(lp2830
g1439
asbasbasbag68
(g84
g70
NtRp2831
(dp2832
g73
(dp2833
sg82
g2449
sg75
(lp2834
g68
(g89
g70
NtRp2835
(dp2836
g73
(dp2837
g93
g94
ssg82
g2831
sg75
(lp2838
S'wsgi.errors'
p2839
asbag68
(g89
g70
NtRp2840
(dp2841
g73
(dp2842
g100
g101
ssg82
g2831
sg75
(lp2843
S':'
asbag68
(g89
g70
NtRp2844
(dp2845
g73
(dp2846
sg82
g2831
sg75
(lp2847
g68
(g69
g70
NtRp2848
(dp2849
g73
(dp2850
g81
I3
ssg82
g2844
sg75
(lp2851
S"<open file '<stderr>', mode 'w' at 0xb73250d0>"
p2852
asbasbasbag68
(g84
g70
NtRp2853
(dp2854
g73
(dp2855
sg82
g2449
sg75
(lp2856
g68
(g89
g70
NtRp2857
(dp2858
g73
(dp2859
g93
g94
ssg82
g2853
sg75
(lp2860
S'wsgi.file_wrapper'
p2861
asbag68
(g89
g70
NtRp2862
(dp2863
g73
(dp2864
g100
g101
ssg82
g2853
sg75
(lp2865
S':'
asbag68
(g89
g70
NtRp2866
(dp2867
g73
(dp2868
sg82
g2853
sg75
(lp2869
g68
(g69
g70
NtRp2870
(dp2871
g73
(dp2872
g81
I3
ssg82
g2866
sg75
(lp2873
S'<class wsgiref.util.FileWrapper at 0xa507e3c>'
p2874
asbasbasbag68
(g84
g70
NtRp2875
(dp2876
g73
(dp2877
sg82
g2449
sg75
(lp2878
g68
(g89
g70
NtRp2879
(dp2880
g73
(dp2881
g93
g94
ssg82
g2875
sg75
(lp2882
S'wsgi.input'
p2883
asbag68
(g89
g70
NtRp2884
(dp2885
g73
(dp2886
g100
g101
ssg82
g2875
sg75
(lp2887
S':'
asbag68
(g89
g70
NtRp2888
(dp2889
g73
(dp2890
sg82
g2875
sg75
(lp2891
g68
(g69
g70
NtRp2892
(dp2893
g73
(dp2894
g81
I3
ssg82
g2888
sg75
(lp2895
S'<cStringIO.StringO object at 0xae56ce60>'
p2896
asbasbasbag68
(g84
g70
NtRp2897
(dp2898
g73
(dp2899
sg82
g2449
sg75
(lp2900
g68
(g89
g70
NtRp2901
(dp2902
g73
(dp2903
g93
g94
ssg82
g2897
sg75
(lp2904
S'wsgi.multiprocess'
p2905
asbag68
(g89
g70
NtRp2906
(dp2907
g73
(dp2908
g100
g101
ssg82
g2897
sg75
(lp2909
S':'
asbag68
(g89
g70
NtRp2910
(dp2911
g73
(dp2912
sg82
g2897
sg75
(lp2913
g68
(g69
g70
NtRp2914
(dp2915
g73
(dp2916
g81
I3
ssg82
g2910
sg75
(lp2917
g111
asbasbasbag68
(g84
g70
NtRp2918
(dp2919
g73
(dp2920
sg82
g2449
sg75
(lp2921
g68
(g89
g70
NtRp2922
(dp2923
g73
(dp2924
g93
g94
ssg82
g2918
sg75
(lp2925
S'wsgi.multithread'
p2926
asbag68
(g89
g70
NtRp2927
(dp2928
g73
(dp2929
g100
g101
ssg82
g2918
sg75
(lp2930
S':'
asbag68
(g89
g70
NtRp2931
(dp2932
g73
(dp2933
sg82
g2918
sg75
(lp2934
g68
(g69
g70
NtRp2935
(dp2936
g73
(dp2937
g81
I3
ssg82
g2931
sg75
(lp2938
g1679
asbasbasbag68
(g84
g70
NtRp2939
(dp2940
g73
(dp2941
sg82
g2449
sg75
(lp2942
g68
(g89
g70
NtRp2943
(dp2944
g73
(dp2945
g93
g94
ssg82
g2939
sg75
(lp2946
S'wsgi.run_once'
p2947
asbag68
(g89
g70
NtRp2948
(dp2949
g73
(dp2950
g100
g101
ssg82
g2939
sg75
(lp2951
S':'
asbag68
(g89
g70
NtRp2952
(dp2953
g73
(dp2954
sg82
g2939
sg75
(lp2955
g68
(g69
g70
NtRp2956
(dp2957
g73
(dp2958
g81
I3
ssg82
g2952
sg75
(lp2959
g111
asbasbasbag68
(g84
g70
NtRp2960
(dp2961
g73
(dp2962
sg82
g2449
sg75
(lp2963
g68
(g89
g70
NtRp2964
(dp2965
g73
(dp2966
g93
g94
ssg82
g2960
sg75
(lp2967
S'wsgi.url_scheme'
p2968
asbag68
(g89
g70
NtRp2969
(dp2970
g73
(dp2971
g100
g101
ssg82
g2960
sg75
(lp2972
S':'
asbag68
(g89
g70
NtRp2973
(dp2974
g73
(dp2975
sg82
g2960
sg75
(lp2976
g68
(g69
g70
NtRp2977
(dp2978
g73
(dp2979
g81
I3
ssg82
g2973
sg75
(lp2980
g1722
asbasbasbag68
(g84
g70
NtRp2981
(dp2982
g73
(dp2983
sg82
g2449
sg75
(lp2984
g68
(g89
g70
NtRp2985
(dp2986
g73
(dp2987
g93
g94
ssg82
g2981
sg75
(lp2988
S'wsgi.version'
p2989
asbag68
(g89
g70
NtRp2990
(dp2991
g73
(dp2992
g100
g101
ssg82
g2981
sg75
(lp2993
S':'
asbag68
(g89
g70
NtRp2994
(dp2995
g73
(dp2996
sg82
g2981
sg75
(lp2997
g68
(g69
g70
NtRp2998
(dp2999
g73
(dp3000
g81
I3
ssg82
g2994
sg75
(lp3001
S'1'
asbasbasbasbasbasbasbasbasbasbasbasbasbsS'frames'
p3002
(lp3003
(dp3004
S'file'
p3005
S'/home/anu/Desktop/M12/ssad m12/web2py/gluon/restricted.py'
p3006
sS'dump'
p3007
(dp3008
S'code'
p3009
S'r"response.write(\'<!DOCTYPE html>\\n<!-- paulirish....  </div>\\n-->\\n</body>\\n</html>\\n\', escape=False)"'
p3010
sS'layer'
p3011
S"'/home/anu/Desktop/M12/ssad m12/web2py/applications/PhotoUpload/views/default/picture.html'"
p3012
sS'global compile2'
p3013
S'<function compile2>'
p3014
sS'ccode'
p3015
S'undefined'
p3016
ssS'lnum'
p3017
I204
sS'lines'
p3018
(dp3019
I199
S"    environment['__name__'] = '__restricted__'"
p3020
sI200
S'    try:'
p3021
sI201
S'        if type(code) == types.CodeType:'
p3022
sI202
S'            ccode = code'
p3023
sI203
S'        else:'
p3024
sI204
S'            ccode = compile2(code,layer)'
p3025
sI205
S'        exec ccode in environment'
p3026
sI206
S'    except HTTP:'
p3027
sI207
S'        raise'
p3028
sI208
S'    except RestrictedError:'
p3029
ssS'call'
p3030
S'(code=r"response.write(\'<!DOCTYPE html>\\n<!-- paulirish....  </div>\\n-->\\n</body>\\n</html>\\n\', escape=False)", environment={\'A\': <class \'gluon.html.A\'>, \'Auth\': <class \'gluon.tools.Auth\'>, \'B\': <class \'gluon.html.B\'>, \'BEAUTIFY\': <class \'gluon.html.BEAUTIFY\'>, \'BODY\': <class \'gluon.html.BODY\'>, \'BR\': <class \'gluon.html.BR\'>, \'BUTTON\': <class \'gluon.html.BUTTON\'>, \'CAT\': <class \'gluon.html.CAT\'>, \'CENTER\': <class \'gluon.html.CENTER\'>, \'CLEANUP\': <class \'gluon.validators.CLEANUP\'>, ...}, layer=\'/home/anu/Desktop/M12/ssad m12/web2py/applications/PhotoUpload/views/default/picture.html\')'
p3031
sS'func'
p3032
S'restricted'
p3033
sa(dp3034
g3005
S'/home/anu/Desktop/M12/ssad m12/web2py/gluon/restricted.py'
p3035
sg3007
(dp3036
S'builtincompile'
p3037
S'<built-in function compile>'
p3038
sS'code'
p3039
S'r"response.write(\'<!DOCTYPE html>\\n<!-- paulirish....  </div>\\n-->\\n</body>\\n</html>\\n\', escape=False)"'
p3040
sS'code.rstrip'
p3041
S'<built-in method rstrip of str object>'
p3042
sS').replace'
p3043
g3016
sS'layer'
p3044
S"'/home/anu/Desktop/M12/ssad m12/web2py/applications/PhotoUpload/views/default/picture.html'"
p3045
ssg3017
I189
sg3018
(dp3046
I192
S'    """'
p3047
sI193
S'    runs code in environment and returns the output. if an exception occurs'
p3048
sI184
S''
sI185
S'def compile2(code,layer):'
p3049
sI186
S'    """'
p3050
sI187
S"    The +'\\n' is necessary else compile fails when code ends in a comment."
p3051
sI188
S'    """'
p3052
sI189
S"    return compile(code.rstrip().replace('\\r\\n','\\n')+'\\n', layer, 'exec')"
p3053
sI190
S''
sI191
S"def restricted(code, environment=None, layer='Unknown'):"
p3054
ssg3030
S'(code=r"response.write(\'<!DOCTYPE html>\\n<!-- paulirish....  </div>\\n-->\\n</body>\\n</html>\\n\', escape=False)", layer=\'/home/anu/Desktop/M12/ssad m12/web2py/applications/PhotoUpload/views/default/picture.html\')'
p3055
sg3032
S'compile2'
p3056
sasS'pyver'
p3057
S'Python 2.7.3: /usr/bin/python'
p3058
sS'session'
p3059
g68
(g69
g70
NtRp3060
(dp3061
g73
(dp3062
sg75
(lp3063
g68
(g77
g70
NtRp3064
(dp3065
g73
(dp3066
g81
I5
ssg82
Nsg75
(lp3067
g68
(g84
g70
NtRp3068
(dp3069
g73
(dp3070
sg82
g3064
sg75
(lp3071
g68
(g89
g70
NtRp3072
(dp3073
g73
(dp3074
g93
g94
ssg82
g3068
sg75
(lp3075
S'auth'
p3076
asbag68
(g89
g70
NtRp3077
(dp3078
g73
(dp3079
g100
g101
ssg82
g3068
sg75
(lp3080
S':'
asbag68
(g89
g70
NtRp3081
(dp3082
g73
(dp3083
sg82
g3068
sg75
(lp3084
g68
(g69
g70
NtRp3085
(dp3086
g73
(dp3087
g81
I5
ssg82
g3081
sg75
(lp3088
g68
(g77
g70
NtRp3089
(dp3090
g73
(dp3091
g81
I4
ssg82
Nsg75
(lp3092
g68
(g84
g70
NtRp3093
(dp3094
g73
(dp3095
sg82
g3089
sg75
(lp3096
g68
(g89
g70
NtRp3097
(dp3098
g73
(dp3099
g93
g94
ssg82
g3093
sg75
(lp3100
S'expiration'
p3101
asbag68
(g89
g70
NtRp3102
(dp3103
g73
(dp3104
g100
g101
ssg82
g3093
sg75
(lp3105
S':'
asbag68
(g89
g70
NtRp3106
(dp3107
g73
(dp3108
sg82
g3093
sg75
(lp3109
g68
(g69
g70
NtRp3110
(dp3111
g73
(dp3112
g81
I4
ssg82
g3106
sg75
(lp3113
S'3600'
p3114
asbasbasbag68
(g84
g70
NtRp3115
(dp3116
g73
(dp3117
sg82
g3089
sg75
(lp3118
g68
(g89
g70
NtRp3119
(dp3120
g73
(dp3121
g93
g94
ssg82
g3115
sg75
(lp3122
S'hmac_key'
p3123
asbag68
(g89
g70
NtRp3124
(dp3125
g73
(dp3126
g100
g101
ssg82
g3115
sg75
(lp3127
S':'
asbag68
(g89
g70
NtRp3128
(dp3129
g73
(dp3130
sg82
g3115
sg75
(lp3131
g68
(g69
g70
NtRp3132
(dp3133
g73
(dp3134
g81
I4
ssg82
g3128
sg75
(lp3135
S'7a81c8e7-40d5-481a-abd2-fbbfdc5e8bdc'
p3136
asbasbasbag68
(g84
g70
NtRp3137
(dp3138
g73
(dp3139
sg82
g3089
sg75
(lp3140
g68
(g89
g70
NtRp3141
(dp3142
g73
(dp3143
g93
g94
ssg82
g3137
sg75
(lp3144
S'last_visit'
p3145
asbag68
(g89
g70
NtRp3146
(dp3147
g73
(dp3148
g100
g101
ssg82
g3137
sg75
(lp3149
S':'
asbag68
(g89
g70
NtRp3150
(dp3151
g73
(dp3152
sg82
g3137
sg75
(lp3153
g68
(g69
g70
NtRp3154
(dp3155
g73
(dp3156
g81
I4
ssg82
g3150
sg75
(lp3157
S'datetime.datetime(2012, 8, 30, 21, 24, 37, 104979)'
p3158
asbasbasbag68
(g84
g70
NtRp3159
(dp3160
g73
(dp3161
sg82
g3089
sg75
(lp3162
g68
(g89
g70
NtRp3163
(dp3164
g73
(dp3165
g93
g94
ssg82
g3159
sg75
(lp3166
S'remember'
p3167
asbag68
(g89
g70
NtRp3168
(dp3169
g73
(dp3170
g100
g101
ssg82
g3159
sg75
(lp3171
S':'
asbag68
(g89
g70
NtRp3172
(dp3173
g73
(dp3174
sg82
g3159
sg75
(lp3175
g68
(g69
g70
NtRp3176
(dp3177
g73
(dp3178
g81
I4
ssg82
g3172
sg75
(lp3179
g111
asbasbasbag68
(g84
g70
NtRp3180
(dp3181
g73
(dp3182
sg82
g3089
sg75
(lp3183
g68
(g89
g70
NtRp3184
(dp3185
g73
(dp3186
g93
g94
ssg82
g3180
sg75
(lp3187
S'user'
p3188
asbag68
(g89
g70
NtRp3189
(dp3190
g73
(dp3191
g100
g101
ssg82
g3180
sg75
(lp3192
S':'
asbag68
(g89
g70
NtRp3193
(dp3194
g73
(dp3195
sg82
g3180
sg75
(lp3196
g68
(g69
g70
NtRp3197
(dp3198
g73
(dp3199
g81
I4
ssg82
g3193
sg75
(lp3200
g68
(g77
g70
NtRp3201
(dp3202
g73
(dp3203
g81
I3
ssg82
Nsg75
(lp3204
g68
(g84
g70
NtRp3205
(dp3206
g73
(dp3207
sg82
g3201
sg75
(lp3208
g68
(g89
g70
NtRp3209
(dp3210
g73
(dp3211
g93
g94
ssg82
g3205
sg75
(lp3212
S'email'
p3213
asbag68
(g89
g70
NtRp3214
(dp3215
g73
(dp3216
g100
g101
ssg82
g3205
sg75
(lp3217
S':'
asbag68
(g89
g70
NtRp3218
(dp3219
g73
(dp3220
sg82
g3205
sg75
(lp3221
g68
(g69
g70
NtRp3222
(dp3223
g73
(dp3224
g81
I3
ssg82
g3218
sg75
(lp3225
S'inumella.anupriya@gmail.com'
p3226
asbasbasbag68
(g84
g70
NtRp3227
(dp3228
g73
(dp3229
sg82
g3201
sg75
(lp3230
g68
(g89
g70
NtRp3231
(dp3232
g73
(dp3233
g93
g94
ssg82
g3227
sg75
(lp3234
S'first_name'
p3235
asbag68
(g89
g70
NtRp3236
(dp3237
g73
(dp3238
g100
g101
ssg82
g3227
sg75
(lp3239
S':'
asbag68
(g89
g70
NtRp3240
(dp3241
g73
(dp3242
sg82
g3227
sg75
(lp3243
g68
(g69
g70
NtRp3244
(dp3245
g73
(dp3246
g81
I3
ssg82
g3240
sg75
(lp3247
S'Anu'
p3248
asbasbasbag68
(g84
g70
NtRp3249
(dp3250
g73
(dp3251
sg82
g3201
sg75
(lp3252
g68
(g89
g70
NtRp3253
(dp3254
g73
(dp3255
g93
g94
ssg82
g3249
sg75
(lp3256
S'id'
p3257
asbag68
(g89
g70
NtRp3258
(dp3259
g73
(dp3260
g100
g101
ssg82
g3249
sg75
(lp3261
S':'
asbag68
(g89
g70
NtRp3262
(dp3263
g73
(dp3264
sg82
g3249
sg75
(lp3265
g68
(g69
g70
NtRp3266
(dp3267
g73
(dp3268
g81
I3
ssg82
g3262
sg75
(lp3269
S'3'
asbasbasbag68
(g84
g70
NtRp3270
(dp3271
g73
(dp3272
sg82
g3201
sg75
(lp3273
g68
(g89
g70
NtRp3274
(dp3275
g73
(dp3276
g93
g94
ssg82
g3270
sg75
(lp3277
S'last_name'
p3278
asbag68
(g89
g70
NtRp3279
(dp3280
g73
(dp3281
g100
g101
ssg82
g3270
sg75
(lp3282
S':'
asbag68
(g89
g70
NtRp3283
(dp3284
g73
(dp3285
sg82
g3270
sg75
(lp3286
g68
(g69
g70
NtRp3287
(dp3288
g73
(dp3289
g81
I3
ssg82
g3283
sg75
(lp3290
S'I'
asbasbasbag68
(g84
g70
NtRp3291
(dp3292
g73
(dp3293
sg82
g3201
sg75
(lp3294
g68
(g89
g70
NtRp3295
(dp3296
g73
(dp3297
g93
g94
ssg82
g3291
sg75
(lp3298
S'password'
p3299
asbag68
(g89
g70
NtRp3300
(dp3301
g73
(dp3302
g100
g101
ssg82
g3291
sg75
(lp3303
S':'
asbag68
(g89
g70
NtRp3304
(dp3305
g73
(dp3306
sg82
g3291
sg75
(lp3307
g68
(g69
g70
NtRp3308
(dp3309
g73
(dp3310
g81
I3
ssg82
g3304
sg75
(lp3311
S'05197b267c6d6958fabd507893823629'
p3312
asbasbasbag68
(g84
g70
NtRp3313
(dp3314
g73
(dp3315
sg82
g3201
sg75
(lp3316
g68
(g89
g70
NtRp3317
(dp3318
g73
(dp3319
g93
g94
ssg82
g3313
sg75
(lp3320
S'registration_id'
p3321
asbag68
(g89
g70
NtRp3322
(dp3323
g73
(dp3324
g100
g101
ssg82
g3313
sg75
(lp3325
S':'
asbag68
(g89
g70
NtRp3326
(dp3327
g73
(dp3328
sg82
g3313
sg75
(lp3329
g68
(g69
g70
NtRp3330
(dp3331
g73
(dp3332
g81
I3
ssg82
g3326
sg75
(lp3333
S''
asbasbasbag68
(g84
g70
NtRp3334
(dp3335
g73
(dp3336
sg82
g3201
sg75
(lp3337
g68
(g89
g70
NtRp3338
(dp3339
g73
(dp3340
g93
g94
ssg82
g3334
sg75
(lp3341
S'registration_key'
p3342
asbag68
(g89
g70
NtRp3343
(dp3344
g73
(dp3345
g100
g101
ssg82
g3334
sg75
(lp3346
S':'
asbag68
(g89
g70
NtRp3347
(dp3348
g73
(dp3349
sg82
g3334
sg75
(lp3350
g68
(g69
g70
NtRp3351
(dp3352
g73
(dp3353
g81
I3
ssg82
g3347
sg75
(lp3354
S''
asbasbasbag68
(g84
g70
NtRp3355
(dp3356
g73
(dp3357
sg82
g3201
sg75
(lp3358
g68
(g89
g70
NtRp3359
(dp3360
g73
(dp3361
g93
g94
ssg82
g3355
sg75
(lp3362
S'reset_password_key'
p3363
asbag68
(g89
g70
NtRp3364
(dp3365
g73
(dp3366
g100
g101
ssg82
g3355
sg75
(lp3367
S':'
asbag68
(g89
g70
NtRp3368
(dp3369
g73
(dp3370
sg82
g3355
sg75
(lp3371
g68
(g69
g70
NtRp3372
(dp3373
g73
(dp3374
g81
I3
ssg82
g3368
sg75
(lp3375
S''
asbasbasbasbasbasbasbag68
(g84
g70
NtRp3376
(dp3377
g73
(dp3378
sg82
g3089
sg75
(lp3379
g68
(g89
g70
NtRp3380
(dp3381
g73
(dp3382
g93
g94
ssg82
g3376
sg75
(lp3383
S'user_groups'
p3384
asbag68
(g89
g70
NtRp3385
(dp3386
g73
(dp3387
g100
g101
ssg82
g3376
sg75
(lp3388
S':'
asbag68
(g89
g70
NtRp3389
(dp3390
g73
(dp3391
sg82
g3376
sg75
(lp3392
g68
(g69
g70
NtRp3393
(dp3394
g73
(dp3395
g81
I4
ssg82
g3389
sg75
(lp3396
g68
(g77
g70
NtRp3397
(dp3398
g73
(dp3399
g81
I3
ssg82
Nsg75
(lp3400
g68
(g84
g70
NtRp3401
(dp3402
g73
(dp3403
sg82
g3397
sg75
(lp3404
g68
(g89
g70
NtRp3405
(dp3406
g73
(dp3407
g93
g94
ssg82
g3401
sg75
(lp3408
S'3'
asbag68
(g89
g70
NtRp3409
(dp3410
g73
(dp3411
g100
g101
ssg82
g3401
sg75
(lp3412
S':'
asbag68
(g89
g70
NtRp3413
(dp3414
g73
(dp3415
sg82
g3401
sg75
(lp3416
g68
(g69
g70
NtRp3417
(dp3418
g73
(dp3419
g81
I3
ssg82
g3413
sg75
(lp3420
S'user_3'
p3421
asbasbasbasbasbasbasbasbasbasbasbag68
(g84
g70
NtRp3422
(dp3423
g73
(dp3424
sg82
g3064
sg75
(lp3425
g68
(g89
g70
NtRp3426
(dp3427
g73
(dp3428
g93
g94
ssg82
g3422
sg75
(lp3429
S'last_query'
p3430
asbag68
(g89
g70
NtRp3431
(dp3432
g73
(dp3433
g100
g101
ssg82
g3422
sg75
(lp3434
S':'
asbag68
(g89
g70
NtRp3435
(dp3436
g73
(dp3437
sg82
g3422
sg75
(lp3438
g68
(g69
g70
NtRp3439
(dp3440
g73
(dp3441
g81
I5
ssg82
g3435
sg75
(lp3442
S'db.auth_user.id>0'
p3443
asbasbasbasbasbsS'etype'
p3444
S"<type 'exceptions.SyntaxError'>"
p3445
sS'date'
p3446
S'Thu Aug 30 21:27:47 2012'
p3447
sS'response'
p3448
g68
(g69
g70
NtRp3449
(dp3450
g73
(dp3451
sg75
(lp3452
g68
(g77
g70
NtRp3453
(dp3454
g73
(dp3455
g81
I5
ssg82
Nsg75
(lp3456
g68
(g84
g70
NtRp3457
(dp3458
g73
(dp3459
sg82
g3453
sg75
(lp3460
g68
(g89
g70
NtRp3461
(dp3462
g73
(dp3463
g93
g94
ssg82
g3457
sg75
(lp3464
g178
asbag68
(g89
g70
NtRp3465
(dp3466
g73
(dp3467
g100
g101
ssg82
g3457
sg75
(lp3468
S':'
asbag68
(g89
g70
NtRp3469
(dp3470
g73
(dp3471
sg82
g3457
sg75
(lp3472
g68
(g69
g70
NtRp3473
(dp3474
g73
(dp3475
g81
I5
ssg82
g3469
sg75
(lp3476
S'<cStringIO.StringO object at 0xae55f220>'
p3477
asbasbasbag68
(g84
g70
NtRp3478
(dp3479
g73
(dp3480
sg82
g3453
sg75
(lp3481
g68
(g89
g70
NtRp3482
(dp3483
g73
(dp3484
g93
g94
ssg82
g3478
sg75
(lp3485
g244
asbag68
(g89
g70
NtRp3486
(dp3487
g73
(dp3488
g100
g101
ssg82
g3478
sg75
(lp3489
S':'
asbag68
(g89
g70
NtRp3490
(dp3491
g73
(dp3492
sg82
g3478
sg75
(lp3493
g68
(g69
g70
NtRp3494
(dp3495
g73
(dp3496
g81
I5
ssg82
g3490
sg75
(lp3497
g68
(g77
g70
NtRp3498
(dp3499
g73
(dp3500
g81
I4
ssg82
Nsg75
(lp3501
g68
(g84
g70
NtRp3502
(dp3503
g73
(dp3504
sg82
g3498
sg75
(lp3505
g68
(g89
g70
NtRp3506
(dp3507
g73
(dp3508
g93
g94
ssg82
g3502
sg75
(lp3509
S'session_id_photoupload'
p3510
asbag68
(g89
g70
NtRp3511
(dp3512
g73
(dp3513
g100
g101
ssg82
g3502
sg75
(lp3514
S':'
asbag68
(g89
g70
NtRp3515
(dp3516
g73
(dp3517
sg82
g3502
sg75
(lp3518
g68
(g69
g70
NtRp3519
(dp3520
g73
(dp3521
g81
I4
ssg82
g3515
sg75
(lp3522
g68
(g77
g70
NtRp3523
(dp3524
g73
(dp3525
g81
I3
ssg82
Nsg75
(lp3526
g68
(g84
g70
NtRp3527
(dp3528
g73
(dp3529
sg82
g3523
sg75
(lp3530
g68
(g89
g70
NtRp3531
(dp3532
g73
(dp3533
g93
g94
ssg82
g3527
sg75
(lp3534
g294
asbag68
(g89
g70
NtRp3535
(dp3536
g73
(dp3537
g100
g101
ssg82
g3527
sg75
(lp3538
S':'
asbag68
(g89
g70
NtRp3539
(dp3540
g73
(dp3541
sg82
g3527
sg75
(lp3542
g68
(g69
g70
NtRp3543
(dp3544
g73
(dp3545
g81
I3
ssg82
g3539
sg75
(lp3546
S''
asbasbasbag68
(g84
g70
NtRp3547
(dp3548
g73
(dp3549
sg82
g3523
sg75
(lp3550
g68
(g89
g70
NtRp3551
(dp3552
g73
(dp3553
g93
g94
ssg82
g3547
sg75
(lp3554
g315
asbag68
(g89
g70
NtRp3555
(dp3556
g73
(dp3557
g100
g101
ssg82
g3547
sg75
(lp3558
S':'
asbag68
(g89
g70
NtRp3559
(dp3560
g73
(dp3561
sg82
g3547
sg75
(lp3562
g68
(g69
g70
NtRp3563
(dp3564
g73
(dp3565
g81
I3
ssg82
g3559
sg75
(lp3566
S''
asbasbasbag68
(g84
g70
NtRp3567
(dp3568
g73
(dp3569
sg82
g3523
sg75
(lp3570
g68
(g89
g70
NtRp3571
(dp3572
g73
(dp3573
g93
g94
ssg82
g3567
sg75
(lp3574
g336
asbag68
(g89
g70
NtRp3575
(dp3576
g73
(dp3577
g100
g101
ssg82
g3567
sg75
(lp3578
S':'
asbag68
(g89
g70
NtRp3579
(dp3580
g73
(dp3581
sg82
g3567
sg75
(lp3582
g68
(g69
g70
NtRp3583
(dp3584
g73
(dp3585
g81
I3
ssg82
g3579
sg75
(lp3586
S''
asbasbasbag68
(g84
g70
NtRp3587
(dp3588
g73
(dp3589
sg82
g3523
sg75
(lp3590
g68
(g89
g70
NtRp3591
(dp3592
g73
(dp3593
g93
g94
ssg82
g3587
sg75
(lp3594
g357
asbag68
(g89
g70
NtRp3595
(dp3596
g73
(dp3597
g100
g101
ssg82
g3587
sg75
(lp3598
S':'
asbag68
(g89
g70
NtRp3599
(dp3600
g73
(dp3601
sg82
g3587
sg75
(lp3602
g68
(g69
g70
NtRp3603
(dp3604
g73
(dp3605
g81
I3
ssg82
g3599
sg75
(lp3606
S''
asbasbasbag68
(g84
g70
NtRp3607
(dp3608
g73
(dp3609
sg82
g3523
sg75
(lp3610
g68
(g89
g70
NtRp3611
(dp3612
g73
(dp3613
g93
g94
ssg82
g3607
sg75
(lp3614
g378
asbag68
(g89
g70
NtRp3615
(dp3616
g73
(dp3617
g100
g101
ssg82
g3607
sg75
(lp3618
S':'
asbag68
(g89
g70
NtRp3619
(dp3620
g73
(dp3621
sg82
g3607
sg75
(lp3622
g68
(g69
g70
NtRp3623
(dp3624
g73
(dp3625
g81
I3
ssg82
g3619
sg75
(lp3626
S''
asbasbasbag68
(g84
g70
NtRp3627
(dp3628
g73
(dp3629
sg82
g3523
sg75
(lp3630
g68
(g89
g70
NtRp3631
(dp3632
g73
(dp3633
g93
g94
ssg82
g3627
sg75
(lp3634
g399
asbag68
(g89
g70
NtRp3635
(dp3636
g73
(dp3637
g100
g101
ssg82
g3627
sg75
(lp3638
S':'
asbag68
(g89
g70
NtRp3639
(dp3640
g73
(dp3641
sg82
g3627
sg75
(lp3642
g68
(g69
g70
NtRp3643
(dp3644
g73
(dp3645
g81
I3
ssg82
g3639
sg75
(lp3646
S'/'
asbasbasbag68
(g84
g70
NtRp3647
(dp3648
g73
(dp3649
sg82
g3523
sg75
(lp3650
g68
(g89
g70
NtRp3651
(dp3652
g73
(dp3653
g93
g94
ssg82
g3647
sg75
(lp3654
g420
asbag68
(g89
g70
NtRp3655
(dp3656
g73
(dp3657
g100
g101
ssg82
g3647
sg75
(lp3658
S':'
asbag68
(g89
g70
NtRp3659
(dp3660
g73
(dp3661
sg82
g3647
sg75
(lp3662
g68
(g69
g70
NtRp3663
(dp3664
g73
(dp3665
g81
I3
ssg82
g3659
sg75
(lp3666
S''
asbasbasbag68
(g84
g70
NtRp3667
(dp3668
g73
(dp3669
sg82
g3523
sg75
(lp3670
g68
(g89
g70
NtRp3671
(dp3672
g73
(dp3673
g93
g94
ssg82
g3667
sg75
(lp3674
g441
asbag68
(g89
g70
NtRp3675
(dp3676
g73
(dp3677
g100
g101
ssg82
g3667
sg75
(lp3678
S':'
asbag68
(g89
g70
NtRp3679
(dp3680
g73
(dp3681
sg82
g3667
sg75
(lp3682
g68
(g69
g70
NtRp3683
(dp3684
g73
(dp3685
g81
I3
ssg82
g3679
sg75
(lp3686
S''
asbasbasbasbasbasbasbasbasbasbasbag68
(g84
g70
NtRp3687
(dp3688
g73
(dp3689
sg82
g3453
sg75
(lp3690
g68
(g89
g70
NtRp3691
(dp3692
g73
(dp3693
g93
g94
ssg82
g3687
sg75
(lp3694
S'delimiters'
p3695
asbag68
(g89
g70
NtRp3696
(dp3697
g73
(dp3698
g100
g101
ssg82
g3687
sg75
(lp3699
S':'
asbag68
(g89
g70
NtRp3700
(dp3701
g73
(dp3702
sg82
g3687
sg75
(lp3703
g68
(g69
g70
NtRp3704
(dp3705
g73
(dp3706
g81
I5
ssg82
g3700
sg75
(lp3707
g68
(g77
g70
NtRp3708
(dp3709
g73
(dp3710
g81
I4
ssg82
Nsg75
(lp3711
g68
(g84
g70
NtRp3712
(dp3713
g73
(dp3714
sg82
g3708
sg75
(lp3715
g68
(g89
g70
NtRp3716
(dp3717
g73
(dp3718
sg82
g3712
sg75
(lp3719
g68
(g69
g70
NtRp3720
(dp3721
g73
(dp3722
g81
I4
ssg82
g3716
sg75
(lp3723
S'{{'
p3724
asbasbasbag68
(g84
g70
NtRp3725
(dp3726
g73
(dp3727
sg82
g3708
sg75
(lp3728
g68
(g89
g70
NtRp3729
(dp3730
g73
(dp3731
sg82
g3725
sg75
(lp3732
g68
(g69
g70
NtRp3733
(dp3734
g73
(dp3735
g81
I4
ssg82
g3729
sg75
(lp3736
S'}}'
p3737
asbasbasbasbasbasbasbag68
(g84
g70
NtRp3738
(dp3739
g73
(dp3740
sg82
g3453
sg75
(lp3741
g68
(g89
g70
NtRp3742
(dp3743
g73
(dp3744
g93
g94
ssg82
g3738
sg75
(lp3745
S'files'
p3746
asbag68
(g89
g70
NtRp3747
(dp3748
g73
(dp3749
g100
g101
ssg82
g3738
sg75
(lp3750
S':'
asbag68
(g89
g70
NtRp3751
(dp3752
g73
(dp3753
sg82
g3738
sg75
(lp3754
g68
(g69
g70
NtRp3755
(dp3756
g73
(dp3757
g81
I5
ssg82
g3751
sg75
(lp3758
g68
(g77
g70
NtRp3759
(dp3760
g73
(dp3761
g81
I4
ssg82
Nsg75
(lp3762
sbasbasbasbag68
(g84
g70
NtRp3763
(dp3764
g73
(dp3765
sg82
g3453
sg75
(lp3766
g68
(g89
g70
NtRp3767
(dp3768
g73
(dp3769
g93
g94
ssg82
g3763
sg75
(lp3770
S'flash'
p3771
asbag68
(g89
g70
NtRp3772
(dp3773
g73
(dp3774
g100
g101
ssg82
g3763
sg75
(lp3775
S':'
asbag68
(g89
g70
NtRp3776
(dp3777
g73
(dp3778
sg82
g3763
sg75
(lp3779
g68
(g69
g70
NtRp3780
(dp3781
g73
(dp3782
g81
I5
ssg82
g3776
sg75
(lp3783
S''
asbasbasbag68
(g84
g70
NtRp3784
(dp3785
g73
(dp3786
sg82
g3453
sg75
(lp3787
g68
(g89
g70
NtRp3788
(dp3789
g73
(dp3790
g93
g94
ssg82
g3784
sg75
(lp3791
S'generic_patterns'
p3792
asbag68
(g89
g70
NtRp3793
(dp3794
g73
(dp3795
g100
g101
ssg82
g3784
sg75
(lp3796
S':'
asbag68
(g89
g70
NtRp3797
(dp3798
g73
(dp3799
sg82
g3784
sg75
(lp3800
g68
(g69
g70
NtRp3801
(dp3802
g73
(dp3803
g81
I5
ssg82
g3797
sg75
(lp3804
g68
(g77
g70
NtRp3805
(dp3806
g73
(dp3807
g81
I4
ssg82
Nsg75
(lp3808
g68
(g84
g70
NtRp3809
(dp3810
g73
(dp3811
sg82
g3805
sg75
(lp3812
g68
(g89
g70
NtRp3813
(dp3814
g73
(dp3815
sg82
g3809
sg75
(lp3816
g68
(g69
g70
NtRp3817
(dp3818
g73
(dp3819
g81
I4
ssg82
g3813
sg75
(lp3820
S'*'
asbasbasbasbasbasbasbag68
(g84
g70
NtRp3821
(dp3822
g73
(dp3823
sg82
g3453
sg75
(lp3824
g68
(g89
g70
NtRp3825
(dp3826
g73
(dp3827
g93
g94
ssg82
g3821
sg75
(lp3828
S'headers'
p3829
asbag68
(g89
g70
NtRp3830
(dp3831
g73
(dp3832
g100
g101
ssg82
g3821
sg75
(lp3833
S':'
asbag68
(g89
g70
NtRp3834
(dp3835
g73
(dp3836
sg82
g3821
sg75
(lp3837
g68
(g69
g70
NtRp3838
(dp3839
g73
(dp3840
g81
I5
ssg82
g3834
sg75
(lp3841
g68
(g77
g70
NtRp3842
(dp3843
g73
(dp3844
g81
I4
ssg82
Nsg75
(lp3845
g68
(g84
g70
NtRp3846
(dp3847
g73
(dp3848
sg82
g3842
sg75
(lp3849
g68
(g89
g70
NtRp3850
(dp3851
g73
(dp3852
g93
g94
ssg82
g3846
sg75
(lp3853
S'Cache-Control'
p3854
asbag68
(g89
g70
NtRp3855
(dp3856
g73
(dp3857
g100
g101
ssg82
g3846
sg75
(lp3858
S':'
asbag68
(g89
g70
NtRp3859
(dp3860
g73
(dp3861
sg82
g3846
sg75
(lp3862
g68
(g69
g70
NtRp3863
(dp3864
g73
(dp3865
g81
I4
ssg82
g3859
sg75
(lp3866
S'no-store, no-cache, must-revalidate, post-check=0, pre-check=0'
p3867
asbasbasbag68
(g84
g70
NtRp3868
(dp3869
g73
(dp3870
sg82
g3842
sg75
(lp3871
g68
(g89
g70
NtRp3872
(dp3873
g73
(dp3874
g93
g94
ssg82
g3868
sg75
(lp3875
S'Content-Type'
p3876
asbag68
(g89
g70
NtRp3877
(dp3878
g73
(dp3879
g100
g101
ssg82
g3868
sg75
(lp3880
S':'
asbag68
(g89
g70
NtRp3881
(dp3882
g73
(dp3883
sg82
g3868
sg75
(lp3884
g68
(g69
g70
NtRp3885
(dp3886
g73
(dp3887
g81
I4
ssg82
g3881
sg75
(lp3888
S'text/html; charset=utf-8'
p3889
asbasbasbag68
(g84
g70
NtRp3890
(dp3891
g73
(dp3892
sg82
g3842
sg75
(lp3893
g68
(g89
g70
NtRp3894
(dp3895
g73
(dp3896
g93
g94
ssg82
g3890
sg75
(lp3897
S'Expires'
p3898
asbag68
(g89
g70
NtRp3899
(dp3900
g73
(dp3901
g100
g101
ssg82
g3890
sg75
(lp3902
S':'
asbag68
(g89
g70
NtRp3903
(dp3904
g73
(dp3905
sg82
g3890
sg75
(lp3906
g68
(g69
g70
NtRp3907
(dp3908
g73
(dp3909
g81
I4
ssg82
g3903
sg75
(lp3910
S'Thu, 30 Aug 2012 15:57:46 GMT'
p3911
asbasbasbag68
(g84
g70
NtRp3912
(dp3913
g73
(dp3914
sg82
g3842
sg75
(lp3915
g68
(g89
g70
NtRp3916
(dp3917
g73
(dp3918
g93
g94
ssg82
g3912
sg75
(lp3919
S'Pragma'
p3920
asbag68
(g89
g70
NtRp3921
(dp3922
g73
(dp3923
g100
g101
ssg82
g3912
sg75
(lp3924
S':'
asbag68
(g89
g70
NtRp3925
(dp3926
g73
(dp3927
sg82
g3912
sg75
(lp3928
g68
(g69
g70
NtRp3929
(dp3930
g73
(dp3931
g81
I4
ssg82
g3925
sg75
(lp3932
S'no-cache'
p3933
asbasbasbag68
(g84
g70
NtRp3934
(dp3935
g73
(dp3936
sg82
g3842
sg75
(lp3937
g68
(g89
g70
NtRp3938
(dp3939
g73
(dp3940
g93
g94
ssg82
g3934
sg75
(lp3941
S'X-Powered-By'
p3942
asbag68
(g89
g70
NtRp3943
(dp3944
g73
(dp3945
g100
g101
ssg82
g3934
sg75
(lp3946
S':'
asbag68
(g89
g70
NtRp3947
(dp3948
g73
(dp3949
sg82
g3934
sg75
(lp3950
g68
(g69
g70
NtRp3951
(dp3952
g73
(dp3953
g81
I4
ssg82
g3947
sg75
(lp3954
S'web2py'
p3955
asbasbasbasbasbasbasbag68
(g84
g70
NtRp3956
(dp3957
g73
(dp3958
sg82
g3453
sg75
(lp3959
g68
(g89
g70
NtRp3960
(dp3961
g73
(dp3962
g93
g94
ssg82
g3956
sg75
(lp3963
S'menu'
p3964
asbag68
(g89
g70
NtRp3965
(dp3966
g73
(dp3967
g100
g101
ssg82
g3956
sg75
(lp3968
S':'
asbag68
(g89
g70
NtRp3969
(dp3970
g73
(dp3971
sg82
g3956
sg75
(lp3972
g68
(g69
g70
NtRp3973
(dp3974
g73
(dp3975
g81
I5
ssg82
g3969
sg75
(lp3976
g68
(g77
g70
NtRp3977
(dp3978
g73
(dp3979
g81
I4
ssg82
Nsg75
(lp3980
g68
(g84
g70
NtRp3981
(dp3982
g73
(dp3983
sg82
g3977
sg75
(lp3984
g68
(g89
g70
NtRp3985
(dp3986
g73
(dp3987
sg82
g3981
sg75
(lp3988
g68
(g69
g70
NtRp3989
(dp3990
g73
(dp3991
g81
I4
ssg82
g3985
sg75
(lp3992
g68
(g77
g70
NtRp3993
(dp3994
g73
(dp3995
g81
I3
ssg82
Nsg75
(lp3996
g68
(g84
g70
NtRp3997
(dp3998
g73
(dp3999
sg82
g3993
sg75
(lp4000
g68
(g89
g70
NtRp4001
(dp4002
g73
(dp4003
sg82
g3997
sg75
(lp4004
g68
(g69
g70
NtRp4005
(dp4006
g73
(dp4007
g81
I3
ssg82
g4001
sg75
(lp4008
cgluon.languages
lazyT_unpickle
p4009
(S't\x04\x00\x00\x00Home'
tRp4010
asbasbasbag68
(g84
g70
NtRp4011
(dp4012
g73
(dp4013
sg82
g3993
sg75
(lp4014
g68
(g89
g70
NtRp4015
(dp4016
g73
(dp4017
sg82
g4011
sg75
(lp4018
g68
(g69
g70
NtRp4019
(dp4020
g73
(dp4021
g81
I3
ssg82
g4015
sg75
(lp4022
g111
asbasbasbag68
(g84
g70
NtRp4023
(dp4024
g73
(dp4025
sg82
g3993
sg75
(lp4026
g68
(g89
g70
NtRp4027
(dp4028
g73
(dp4029
sg82
g4023
sg75
(lp4030
g68
(g69
g70
NtRp4031
(dp4032
g73
(dp4033
g81
I3
ssg82
g4027
sg75
(lp4034
S'/PhotoUpload/default/index'
p4035
asbasbasbag68
(g84
g70
NtRp4036
(dp4037
g73
(dp4038
sg82
g3993
sg75
(lp4039
g68
(g89
g70
NtRp4040
(dp4041
g73
(dp4042
sg82
g4036
sg75
(lp4043
g68
(g69
g70
NtRp4044
(dp4045
g73
(dp4046
g81
I3
ssg82
g4040
sg75
(lp4047
g68
(g77
g70
NtRp4048
(dp4049
g73
(dp4050
g81
I2
ssg82
Nsg75
(lp4051
sbasbasbasbasbasbasbasbag68
(g84
g70
NtRp4052
(dp4053
g73
(dp4054
sg82
g3977
sg75
(lp4055
g68
(g89
g70
NtRp4056
(dp4057
g73
(dp4058
sg82
g4052
sg75
(lp4059
g68
(g69
g70
NtRp4060
(dp4061
g73
(dp4062
g81
I4
ssg82
g4056
sg75
(lp4063
g68
(g77
g70
NtRp4064
(dp4065
g73
(dp4066
g81
I3
ssg82
Nsg75
(lp4067
g68
(g84
g70
NtRp4068
(dp4069
g73
(dp4070
sg82
g4064
sg75
(lp4071
g68
(g89
g70
NtRp4072
(dp4073
g73
(dp4074
sg82
g4068
sg75
(lp4075
g68
(g69
g70
NtRp4076
(dp4077
g73
(dp4078
g81
I3
ssg82
g4072
sg75
(lp4079
g4009
(S't\x07\x00\x00\x00Gallery'
tRp4080
asbasbasbag68
(g84
g70
NtRp4081
(dp4082
g73
(dp4083
sg82
g4064
sg75
(lp4084
g68
(g89
g70
NtRp4085
(dp4086
g73
(dp4087
sg82
g4081
sg75
(lp4088
g68
(g69
g70
NtRp4089
(dp4090
g73
(dp4091
g81
I3
ssg82
g4085
sg75
(lp4092
g111
asbasbasbag68
(g84
g70
NtRp4093
(dp4094
g73
(dp4095
sg82
g4064
sg75
(lp4096
g68
(g89
g70
NtRp4097
(dp4098
g73
(dp4099
sg82
g4093
sg75
(lp4100
g68
(g69
g70
NtRp4101
(dp4102
g73
(dp4103
g81
I3
ssg82
g4097
sg75
(lp4104
S'/PhotoUpload/default/gallery'
p4105
asbasbasbag68
(g84
g70
NtRp4106
(dp4107
g73
(dp4108
sg82
g4064
sg75
(lp4109
g68
(g89
g70
NtRp4110
(dp4111
g73
(dp4112
sg82
g4106
sg75
(lp4113
g68
(g69
g70
NtRp4114
(dp4115
g73
(dp4116
g81
I3
ssg82
g4110
sg75
(lp4117
g68
(g77
g70
NtRp4118
(dp4119
g73
(dp4120
g81
I2
ssg82
Nsg75
(lp4121
sbasbasbasbasbasbasbasbasbasbasbasbag68
(g84
g70
NtRp4122
(dp4123
g73
(dp4124
sg82
g3453
sg75
(lp4125
g68
(g89
g70
NtRp4126
(dp4127
g73
(dp4128
g93
g94
ssg82
g4122
sg75
(lp4129
S'meta'
p4130
asbag68
(g89
g70
NtRp4131
(dp4132
g73
(dp4133
g100
g101
ssg82
g4122
sg75
(lp4134
S':'
asbag68
(g89
g70
NtRp4135
(dp4136
g73
(dp4137
sg82
g4122
sg75
(lp4138
g68
(g69
g70
NtRp4139
(dp4140
g73
(dp4141
g81
I5
ssg82
g4135
sg75
(lp4142
g68
(g77
g70
NtRp4143
(dp4144
g73
(dp4145
g81
I4
ssg82
Nsg75
(lp4146
g68
(g84
g70
NtRp4147
(dp4148
g73
(dp4149
sg82
g4143
sg75
(lp4150
g68
(g89
g70
NtRp4151
(dp4152
g73
(dp4153
g93
g94
ssg82
g4147
sg75
(lp4154
S'author'
p4155
asbag68
(g89
g70
NtRp4156
(dp4157
g73
(dp4158
g100
g101
ssg82
g4147
sg75
(lp4159
S':'
asbag68
(g89
g70
NtRp4160
(dp4161
g73
(dp4162
sg82
g4147
sg75
(lp4163
g68
(g69
g70
NtRp4164
(dp4165
g73
(dp4166
g81
I4
ssg82
g4160
sg75
(lp4167
S'Your Name <you@example.com>'
p4168
asbasbasbag68
(g84
g70
NtRp4169
(dp4170
g73
(dp4171
sg82
g4143
sg75
(lp4172
g68
(g89
g70
NtRp4173
(dp4174
g73
(dp4175
g93
g94
ssg82
g4169
sg75
(lp4176
S'copyright'
p4177
asbag68
(g89
g70
NtRp4178
(dp4179
g73
(dp4180
g100
g101
ssg82
g4169
sg75
(lp4181
S':'
asbag68
(g89
g70
NtRp4182
(dp4183
g73
(dp4184
sg82
g4169
sg75
(lp4185
g68
(g69
g70
NtRp4186
(dp4187
g73
(dp4188
g81
I4
ssg82
g4182
sg75
(lp4189
S'Copyright 2011'
p4190
asbasbasbag68
(g84
g70
NtRp4191
(dp4192
g73
(dp4193
sg82
g4143
sg75
(lp4194
g68
(g89
g70
NtRp4195
(dp4196
g73
(dp4197
g93
g94
ssg82
g4191
sg75
(lp4198
S'description'
p4199
asbag68
(g89
g70
NtRp4200
(dp4201
g73
(dp4202
g100
g101
ssg82
g4191
sg75
(lp4203
S':'
asbag68
(g89
g70
NtRp4204
(dp4205
g73
(dp4206
sg82
g4191
sg75
(lp4207
g68
(g69
g70
NtRp4208
(dp4209
g73
(dp4210
g81
I4
ssg82
g4204
sg75
(lp4211
S'a cool new app'
p4212
asbasbasbag68
(g84
g70
NtRp4213
(dp4214
g73
(dp4215
sg82
g4143
sg75
(lp4216
g68
(g89
g70
NtRp4217
(dp4218
g73
(dp4219
g93
g94
ssg82
g4213
sg75
(lp4220
S'generator'
p4221
asbag68
(g89
g70
NtRp4222
(dp4223
g73
(dp4224
g100
g101
ssg82
g4213
sg75
(lp4225
S':'
asbag68
(g89
g70
NtRp4226
(dp4227
g73
(dp4228
sg82
g4213
sg75
(lp4229
g68
(g69
g70
NtRp4230
(dp4231
g73
(dp4232
g81
I4
ssg82
g4226
sg75
(lp4233
S'Web2py Web Framework'
p4234
asbasbasbag68
(g84
g70
NtRp4235
(dp4236
g73
(dp4237
sg82
g4143
sg75
(lp4238
g68
(g89
g70
NtRp4239
(dp4240
g73
(dp4241
g93
g94
ssg82
g4235
sg75
(lp4242
S'keywords'
p4243
asbag68
(g89
g70
NtRp4244
(dp4245
g73
(dp4246
g100
g101
ssg82
g4235
sg75
(lp4247
S':'
asbag68
(g89
g70
NtRp4248
(dp4249
g73
(dp4250
sg82
g4235
sg75
(lp4251
g68
(g69
g70
NtRp4252
(dp4253
g73
(dp4254
g81
I4
ssg82
g4248
sg75
(lp4255
S'web2py, python, framework'
p4256
asbasbasbasbasbasbasbag68
(g84
g70
NtRp4257
(dp4258
g73
(dp4259
sg82
g3453
sg75
(lp4260
g68
(g89
g70
NtRp4261
(dp4262
g73
(dp4263
g93
g94
ssg82
g4257
sg75
(lp4264
S'postprocessing'
p4265
asbag68
(g89
g70
NtRp4266
(dp4267
g73
(dp4268
g100
g101
ssg82
g4257
sg75
(lp4269
S':'
asbag68
(g89
g70
NtRp4270
(dp4271
g73
(dp4272
sg82
g4257
sg75
(lp4273
g68
(g69
g70
NtRp4274
(dp4275
g73
(dp4276
g81
I5
ssg82
g4270
sg75
(lp4277
g68
(g77
g70
NtRp4278
(dp4279
g73
(dp4280
g81
I4
ssg82
Nsg75
(lp4281
sbasbasbasbag68
(g84
g70
NtRp4282
(dp4283
g73
(dp4284
sg82
g3453
sg75
(lp4285
g68
(g89
g70
NtRp4286
(dp4287
g73
(dp4288
g93
g94
ssg82
g4282
sg75
(lp4289
S'session_file'
p4290
asbag68
(g89
g70
NtRp4291
(dp4292
g73
(dp4293
g100
g101
ssg82
g4282
sg75
(lp4294
S':'
asbag68
(g89
g70
NtRp4295
(dp4296
g73
(dp4297
sg82
g4282
sg75
(lp4298
g68
(g69
g70
NtRp4299
(dp4300
g73
(dp4301
g81
I5
ssg82
g4295
sg75
(lp4302
S"<open file '/home/anu/Desktop/M12/ssad m12/web2py/applications/PhotoUpload/sessions/127.0.0.1-0f635432-6687-421f-a06a-9fc402d47a2b', mode 'rb+' at 0xaf689338>"
p4303
asbasbasbag68
(g84
g70
NtRp4304
(dp4305
g73
(dp4306
sg82
g3453
sg75
(lp4307
g68
(g89
g70
NtRp4308
(dp4309
g73
(dp4310
g93
g94
ssg82
g4304
sg75
(lp4311
S'session_filename'
p4312
asbag68
(g89
g70
NtRp4313
(dp4314
g73
(dp4315
g100
g101
ssg82
g4304
sg75
(lp4316
S':'
asbag68
(g89
g70
NtRp4317
(dp4318
g73
(dp4319
sg82
g4304
sg75
(lp4320
g68
(g69
g70
NtRp4321
(dp4322
g73
(dp4323
g81
I5
ssg82
g4317
sg75
(lp4324
S'/home/anu/Desktop/M12/ssad m12/web2py/applications/PhotoUpload/sessions/127.0.0.1-0f635432-6687-421f-a06a-9fc402d47a2b'
p4325
asbasbasbag68
(g84
g70
NtRp4326
(dp4327
g73
(dp4328
sg82
g3453
sg75
(lp4329
g68
(g89
g70
NtRp4330
(dp4331
g73
(dp4332
g93
g94
ssg82
g4326
sg75
(lp4333
S'session_id'
p4334
asbag68
(g89
g70
NtRp4335
(dp4336
g73
(dp4337
g100
g101
ssg82
g4326
sg75
(lp4338
S':'
asbag68
(g89
g70
NtRp4339
(dp4340
g73
(dp4341
sg82
g4326
sg75
(lp4342
g68
(g69
g70
NtRp4343
(dp4344
g73
(dp4345
g81
I5
ssg82
g4339
sg75
(lp4346
S'127.0.0.1-0f635432-6687-421f-a06a-9fc402d47a2b'
p4347
asbasbasbag68
(g84
g70
NtRp4348
(dp4349
g73
(dp4350
sg82
g3453
sg75
(lp4351
g68
(g89
g70
NtRp4352
(dp4353
g73
(dp4354
g93
g94
ssg82
g4348
sg75
(lp4355
S'session_id_name'
p4356
asbag68
(g89
g70
NtRp4357
(dp4358
g73
(dp4359
g100
g101
ssg82
g4348
sg75
(lp4360
S':'
asbag68
(g89
g70
NtRp4361
(dp4362
g73
(dp4363
sg82
g4348
sg75
(lp4364
g68
(g69
g70
NtRp4365
(dp4366
g73
(dp4367
g81
I5
ssg82
g4361
sg75
(lp4368
g3510
asbasbasbag68
(g84
g70
NtRp4369
(dp4370
g73
(dp4371
sg82
g3453
sg75
(lp4372
g68
(g89
g70
NtRp4373
(dp4374
g73
(dp4375
g93
g94
ssg82
g4369
sg75
(lp4376
S'session_locked'
p4377
asbag68
(g89
g70
NtRp4378
(dp4379
g73
(dp4380
g100
g101
ssg82
g4369
sg75
(lp4381
S':'
asbag68
(g89
g70
NtRp4382
(dp4383
g73
(dp4384
sg82
g4369
sg75
(lp4385
g68
(g69
g70
NtRp4386
(dp4387
g73
(dp4388
g81
I5
ssg82
g4382
sg75
(lp4389
g1679
asbasbasbag68
(g84
g70
NtRp4390
(dp4391
g73
(dp4392
sg82
g3453
sg75
(lp4393
g68
(g89
g70
NtRp4394
(dp4395
g73
(dp4396
g93
g94
ssg82
g4390
sg75
(lp4397
S'session_new'
p4398
asbag68
(g89
g70
NtRp4399
(dp4400
g73
(dp4401
g100
g101
ssg82
g4390
sg75
(lp4402
S':'
asbag68
(g89
g70
NtRp4403
(dp4404
g73
(dp4405
sg82
g4390
sg75
(lp4406
g68
(g69
g70
NtRp4407
(dp4408
g73
(dp4409
g81
I5
ssg82
g4403
sg75
(lp4410
g111
asbasbasbag68
(g84
g70
NtRp4411
(dp4412
g73
(dp4413
sg82
g3453
sg75
(lp4414
g68
(g89
g70
NtRp4415
(dp4416
g73
(dp4417
g93
g94
ssg82
g4411
sg75
(lp4418
S'status'
p4419
asbag68
(g89
g70
NtRp4420
(dp4421
g73
(dp4422
g100
g101
ssg82
g4411
sg75
(lp4423
S':'
asbag68
(g89
g70
NtRp4424
(dp4425
g73
(dp4426
sg82
g4411
sg75
(lp4427
g68
(g69
g70
NtRp4428
(dp4429
g73
(dp4430
g81
I5
ssg82
g4424
sg75
(lp4431
S'200'
p4432
asbasbasbag68
(g84
g70
NtRp4433
(dp4434
g73
(dp4435
sg82
g3453
sg75
(lp4436
g68
(g89
g70
NtRp4437
(dp4438
g73
(dp4439
g93
g94
ssg82
g4433
sg75
(lp4440
S'subtitle'
p4441
asbag68
(g89
g70
NtRp4442
(dp4443
g73
(dp4444
g100
g101
ssg82
g4433
sg75
(lp4445
S':'
asbag68
(g89
g70
NtRp4446
(dp4447
g73
(dp4448
sg82
g4433
sg75
(lp4449
g68
(g69
g70
NtRp4450
(dp4451
g73
(dp4452
g81
I5
ssg82
g4446
sg75
(lp4453
g4009
(S's\r\x00\x00\x00customize me!'
tRp4454
asbasbasbag68
(g84
g70
NtRp4455
(dp4456
g73
(dp4457
sg82
g3453
sg75
(lp4458
g68
(g89
g70
NtRp4459
(dp4460
g73
(dp4461
g93
g94
ssg82
g4455
sg75
(lp4462
S'title'
p4463
asbag68
(g89
g70
NtRp4464
(dp4465
g73
(dp4466
g100
g101
ssg82
g4455
sg75
(lp4467
S':'
asbag68
(g89
g70
NtRp4468
(dp4469
g73
(dp4470
sg82
g4455
sg75
(lp4471
g68
(g69
g70
NtRp4472
(dp4473
g73
(dp4474
g81
I5
ssg82
g4468
sg75
(lp4475
S' '
asbasbasbag68
(g84
g70
NtRp4476
(dp4477
g73
(dp4478
sg82
g3453
sg75
(lp4479
g68
(g89
g70
NtRp4480
(dp4481
g73
(dp4482
g93
g94
ssg82
g4476
sg75
(lp4483
g2364
asbag68
(g89
g70
NtRp4484
(dp4485
g73
(dp4486
g100
g101
ssg82
g4476
sg75
(lp4487
S':'
asbag68
(g89
g70
NtRp4488
(dp4489
g73
(dp4490
sg82
g4476
sg75
(lp4491
g68
(g69
g70
NtRp4492
(dp4493
g73
(dp4494
g81
I5
ssg82
g4488
sg75
(lp4495
g2377
asbasbasbag68
(g84
g70
NtRp4496
(dp4497
g73
(dp4498
sg82
g3453
sg75
(lp4499
g68
(g89
g70
NtRp4500
(dp4501
g73
(dp4502
g93
g94
ssg82
g4496
sg75
(lp4503
S'view'
p4504
asbag68
(g89
g70
NtRp4505
(dp4506
g73
(dp4507
g100
g101
ssg82
g4496
sg75
(lp4508
S':'
asbag68
(g89
g70
NtRp4509
(dp4510
g73
(dp4511
sg82
g4496
sg75
(lp4512
g68
(g69
g70
NtRp4513
(dp4514
g73
(dp4515
g81
I5
ssg82
g4509
sg75
(lp4516
S'default/picture.html'
p4517
asbasbasbasbasbsS'locals'
p4518
(dp4519
g4
S"'/home/anu/Desktop/M12/ssad m12/web2py/applications/PhotoUpload/views/default/picture.html'"
p4520
sg6
S'r"response.write(\'<!DOCTYPE html>\\n<!-- paulirish....  </div>\\n-->\\n</body>\\n</html>\\n\', escape=False)"'
p4521
sssS'traceback'
p4522
S'Traceback (most recent call last):\n  File "/home/anu/Desktop/M12/ssad m12/web2py/gluon/restricted.py", line 204, in restricted\n    ccode = compile2(code,layer)\n  File "/home/anu/Desktop/M12/ssad m12/web2py/gluon/restricted.py", line 189, in compile2\n    return compile(code.rstrip().replace(\'\\r\\n\',\'\\n\')+\'\\n\', layer, \'exec\')\n  File "/home/anu/Desktop/M12/ssad m12/web2py/applications/PhotoUpload/views/default/picture.html", line 108\n    else:\n       ^\nSyntaxError: invalid syntax\n'
p4523
s.