(dp1
S'output'
p2
S"<type 'exceptions.NameError'> name 'comment' is not defined"
p3
sS'layer'
p4
S'/home/anu/Desktop/M12/ssad m12/web2py/applications/PhotoUpload/views/default/picture.html'
p5
sS'code'
p6
S'response.write(\'<!DOCTYPE html>\\n<!-- paulirish.com/2008/conditional-stylesheets-vs-css-hacks-answer-neither/ -->\\n<!--[if lt IE 7]><html class="ie ie6 ie-lte9 ie-lte8 ie-lte7 no-js" lang="\', escape=False)\nresponse.write(T.accepted_language or \'en\')\nresponse.write(\'"> <![endif]-->\\n<!--[if IE 7]><html class="ie ie7 ie-lte9 ie-lte8 ie-lte7 no-js" lang="\', escape=False)\nresponse.write(T.accepted_language or \'en\')\nresponse.write(\'"> <![endif]-->\\n<!--[if IE 8]><html class="ie ie8 ie-lte9 ie-lte8 no-js" lang="\', escape=False)\nresponse.write(T.accepted_language or \'en\')\nresponse.write(\'"> <![endif]-->\\n<!--[if IE 9]><html class="ie9 ie-lte9 no-js" lang="\', escape=False)\nresponse.write(T.accepted_language or \'en\')\nresponse.write(\'"> <![endif]-->\\n<!--[if (gt IE 9)|!(IE)]><!--> <html class="no-js" lang="\', escape=False)\nresponse.write(T.accepted_language or \'en\')\nresponse.write(\'"> <!--<![endif]-->\\n<head>\\n  <meta charset="utf-8" />\\n  <style>\\n  body{\\n      font-family:"Trebuchet MS", "Myriad Pro", Arial, sans-serif;\\n      font-size:14px;\\n      background:#f4f4f4 url(/PhotoUpload/static/images/bg.jpg) no-repeat top left !important;\\n      color:#333;\\n  }\\n  #gallery{\\n  width:900px;\\n  margin:0px auto;\\n  margin-top:20px;\\n  height:400px;\\n  overflow:auto;\\n  border-radius:5px;\\n  padding:10px;\\n  z-index:10;\\n}\\n#galleryOpacity{\\n  background:#fff;\\n  width:920px;\\n  box-shadow:1px 1px 7px #000 inset;\\n  height:420px;\\n  margin:-10px 0px 0px -10px;\\n  position:absolute;\\n  opacity:0.7;\\n  z-index:-1;\\n  border-radius:5px;\\n}\\n.button{\\n  background: #6FBEFF;\\n  width:110px;\\n  padding:10px;\\n  padding-top:7px;\\n  text-align:center;\\n  border-radius:5px;\\n  border:2px solid #2FA2FF;\\n  font-size:15px;\\n  text-shadow:none;\\n  color:white;\\n  cursor:pointer;\\n}\\n.imageItem{\\n  width:110px;\\n  height:110px;\\n  cursor:pointer;\\n  float:left;\\n  z-index:0;\\n  margin:10px;\\n}\\n.imageItem img{\\n  width:100%;\\n  height:100%;\\n  padding:5px;\\n  border:1px solid #ccc;\\n  opacity:0.8;\\n}\\n.imageItem img:hover {\\n  -moz-box-shadow: 1px 1px 5px #999;\\n  -webkit-box-shadow: 1px 1px 5px #999;\\n  box-shadow: 1px 1px 5px #999;\\n  opacity:1;\\n}\\n.likes-icon{\\n    margin-left:10px;\\n    background: url(\', escape=False)\nresponse.write(URL(\'static\',\'images/like.jpg\'))\nresponse.write(\') no-repeat;\\n    padding-left:24px;\\n    float:left;\\n}\\n.comments-icon{\\n    margin-left:10px;\\n    background: url(\', escape=False)\nresponse.write(URL(\'static\',\'images/comment.gif\'))\nresponse.write(\') no-repeat;\\n    padding-left:24px;\\n    float:right;\\n}\\n  </style>\\n  <!-- www.phpied.com/conditional-comments-block-downloads/ -->\\n  <!-- Always force latest IE rendering engine\\n       (even in intranet) & Chrome Frame\\n       Remove this if you use the .htaccess -->\\n  <!--[if IE]>\\n    <meta http-equiv="X-UA-Compatible" content="IE=edge\', escape=False)\nresponse.write(not request.is_local and \',chrome=1\' or \'\')\nresponse.write(\'">\\n  <![endif]-->\\n  \\n  <title>\', escape=False)\nresponse.write(response.title or request.application)\nresponse.write(\'</title>\\n  \\n  <!-- http://dev.w3.org/html5/markup/meta.name.html -->\\n  <meta name="application-name" content="\', escape=False)\nresponse.write(request.application)\nresponse.write(\'" />\\n  \\n  <!-- Speaking of Google, don\\\'t forget to set your site up:\\n       http://google.com/webmasters -->\\n  <meta name="google-site-verification" content="" />\\n\\n  <!--  Mobile Viewport Fix\\n      j.mp/mobileviewport & davidbcalhoun.com/2010/viewport-metatag\\n      device-width: Occupy full width of the screen in its current orientation\\n      initial-scale = 1.0 retains dimensions instead of zooming out if page height > device height\\n      user-scalable = yes allows the user to zoom in -->\\n  <meta name="viewport" content="width=device-width, initial-scale=1.0, user-scalable=yes">\\n  \\n  <!-- Place favicon.ico and apple-touch-icon.png in the root of your domain and delete these references -->\\n  <link rel="shortcut icon" href="\', escape=False)\nresponse.write(URL(\'static\',\'favicon.ico\'))\nresponse.write(\'" type="image/x-icon">\\n  <link rel="apple-touch-icon" href="\', escape=False)\nresponse.write(URL(\'static\',\'favicon.png\'))\nresponse.write(\'">\\n\\n  <!-- All JavaScript at the bottom, except for Modernizr which enables \\n       HTML5 elements & feature detects -->\\n  <script src="\', escape=False)\nresponse.write(URL(\'static\',\'js/modernizr.custom.js\'))\nresponse.write(\'"></script>  \\n\\n  <!-- include stylesheets -->\\n  \', escape=False)\nresponse.files.append(URL(\'static\',\'css/skeleton.css\'))\nresponse.files.append(URL(\'static\',\'css/web2py.css\'))\nif response.menu:\n    response.files.append(URL(\'static\',\'css/superfish.css\'))\n    response.files.append(URL(\'static\',\'js/superfish.js\'))\n    pass\nresponse.write(\'\\n\\n  \', escape=False)\nresponse.write(\'<script type="text/javascript"><!--\\n    // These variables are used by the web2py_ajax_init function in web2py_ajax.js (which is loaded below).\\n    var w2p_ajax_confirm_message = "\', escape=False)\nresponse.write(T(\'Are you sure you want to delete this object?\'))\nresponse.write(\'";\\n    var w2p_ajax_date_format = "\', escape=False)\nresponse.write(T(\'%Y-%m-%d\'))\nresponse.write(\'";\\n    var w2p_ajax_datetime_format = "\', escape=False)\nresponse.write(T(\'%Y-%m-%d %H:%M:%S\'))\nresponse.write(\'";\\n    //--></script>\\n\', escape=False)\nresponse.files.insert(0,URL(\'static\',\'js/jquery.js\'))\nresponse.files.insert(1,URL(\'static\',\'css/calendar.css\'))\nresponse.files.insert(2,URL(\'static\',\'js/calendar.js\'))\nresponse.files.insert(3,URL(\'static\',\'js/web2py.js\'))\nresponse.include_meta()\nresponse.include_files()\nresponse.write(\'\\n\', escape=False)\nresponse.write(\'\\n\\n  \', escape=False)\nif response.menu:\n    response.write(\'\\n  <script type="text/javascript">\\n    jQuery(function(){ jQuery(\\\'ul.sf-menu\\\').supersubs({minWidth:12,maxWidth:30,extraWidth:3}).superfish(); });\\n  </script>\\n  \', escape=False)\n    pass\nresponse.write(\'\\n\\n  \', escape=False)\n# using sidebars need to know what sidebar you want to use\nleft_sidebar_enabled = False#globals().get(\'left_sidebar_enabled\',False)\nright_sidebar_enabled = False#globals().get(\'right_sidebar_enabled\',False)\nmiddle_columns = {0:\'sixteen\',1:\'twelve\',2:\'eight\'}[\n(left_sidebar_enabled and 1 or 0)+(right_sidebar_enabled and 1 or 0)]\nresponse.write(\'\\n\\n  <script type="text/javascript" src="\', escape=False)\nresponse.write(URL(\'static\',\'fancybox/lib/jquery.mousewheel-3.0.6.pack.js\'))\nresponse.write(\'"></script>\\n\\n    <!-- Add fancyBox main JS and CSS files -->\\n    <script type="text/javascript" src="\', escape=False)\nresponse.write(URL(\'static\',\'fancybox/source/jquery.fancybox.js\'))\nresponse.write(\'"></script>\\n    <link rel="stylesheet" type="text/css" href="\', escape=False)\nresponse.write(URL(\'static\',\'fancybox/source/jquery.fancybox.css\'))\nresponse.write(\'" media="screen" />\\n    <link rel="stylesheet" type="text/css" href="\', escape=False)\nresponse.write(URL(\'static\',\'fancybox/source/helpers/jquery.fancybox-thumbs.css\'))\nresponse.write(\'" />\\n    <script type="text/javascript" src="\', escape=False)\nresponse.write(URL(\'static\',\'fancybox/source/helpers/jquery.fancybox-thumbs.js\'))\nresponse.write(\'"></script>\\n    <script>\\n  $(document).ready(function(){\\n      $(\\\'.fancybox\\\').fancybox({\\n      helpers : {\\n                    thumbs : {\\n                        width  : 50,\\n                        height : 50\\n                    }\\n                }\\n       });\\n  });\\n  </script>\\n  <!-- uncomment here to load jquery-ui\\n  <link rel="stylesheet" href="http://ajax.googleapis.com/ajax/libs/jqueryui/1.8.16/themes/base/jquery-ui.css" type="text/css" media="all" />\\n  <script src="http://ajax.googleapis.com/ajax/libs/jqueryui/1.8.16/jquery-ui.min.js" type="text/javascript"></script>\\n  uncomment to load jquery-ui //-->\\n</head>\\n<body>\\n  <div class="wrapper"><!-- for sticky footer -->\\n  \\n    <div class="topbar">\\n      <div class="container">    \\n        <div class="sixteen columns">\\n          <div id="navbar">\', escape=False)\nresponse.write(\'auth\' in globals() and auth.navbar(separators=(\' \',\' | \',\'\')))\nresponse.write(\'</div>\\n          \', escape=False)\nis_mobile=request.user_agent().is_mobile\nresponse.write(\'\\n      \', escape=False)\nif response.menu:\n    response.write(\'\\n          <div id="menu">\\n             \', escape=False)\n    response.write(MENU(response.menu, _class=\'mobile-menu\' if is_mobile else \'sf-menu\',mobile=is_mobile))\n    response.write(\'\\n          </div>\\n          \', escape=False)\n    pass\nresponse.write(\'\\n        </div>\\n      </div>\\n    </div><!-- topbar -->\\n    \\n    <div class="flash">\', escape=False)\nresponse.write(response.flash or \'\')\nresponse.write(\'</div>\\n    \\n    <div class="header">\\n      <div class="container">         \\n        <div class="sixteen columns">\\n          <h1 class="remove-bottom" style="margin-top: .5em;">\\n          \', escape=False)\nresponse.write(response.title or request.application)\nresponse.write(\'\\n          </h1>\\n        </div>\\n      </div>\\n    </div>\\n\\n    <div class="main">\\n      <div class="container">                 \\n        \', escape=False)\nif left_sidebar_enabled:\n    response.write(\'\\n        <div class="four columns left-sidebar">\\n          \', escape=False)\n    response.write(\'\\n          <h3>Left Sidebar</h3>\\n          <p></p>\\n          \', escape=False)\n    response.write(\'\\n        </div>\\n        \', escape=False)\n    pass\nresponse.write(\'\\n        \\n        <div class="\', escape=False)\nresponse.write(middle_columns)\nresponse.write(\' columns center">\\n          \', escape=False)\nresponse.write(\'\\n          \', escape=False)\nresponse.write(\'\\n<h3 style="text-align:center">\', escape=False)\nresponse.write(p.title)\nresponse.write(\'</h3><br/>\\n<div style="width:900px;border:1px solid #ccc; background-color:white;padding:5px 5px 0px 5px">\\n    <img src="\', escape=False)\nresponse.write(URL(\'download\',args=p.image))\nresponse.write(\'" style="width:900px;padding:0px"/>\\n</div><br/>\\n<div style="font-size:30px;margin-left:50px;margin-top:10px">\', escape=False)\nresponse.write(len(l))\nresponse.write(\'</div>\\n \', escape=False)\nif len(comment):\n    response.write(\'\\n\\n  <h2>Comments</h2><br /><p>\\n  \', escape=False)\n    for c in comment:\n        response.write(\'\\n\\n    <p>\', escape=False)\n        response.write(c.author)\n        response.write(\' says <i>\', escape=False)\n        response.write(c.comment)\n        response.write(\'</i></p>\\n\\n  \', escape=False)\n        pass\n    response.write(\'</p>\\n\', escape=False)\nelse:\n    response.write(\'\\n\\n  <h2>No comments posted yet</h2>\\n\', escape=False)\n    pass\nresponse.write(\'\\n\\n<h2>Post a comment</h2>\\n\', escape=False)\nresponse.write(form)\nresponse.write(\'\\n\', escape=False)\nresponse.write(\'\\n          \', escape=False)\nresponse.write(\'\\n        </div>\\n        \\n        \', escape=False)\nif right_sidebar_enabled:\n    response.write(\'\\n        <div class="four columns">\\n          \', escape=False)\n    response.write(\'\\n          <h3>Right Sidebar</h3>\\n          <p></p>\\n          \', escape=False)\n    response.write(\'\\n        </div>    \\n        \', escape=False)\n    pass\nresponse.write(\'\\n        \\n      </div><!-- container -->\\n    </div><!-- main -->\\n  </div><!-- wrapper -->\\n<!--\\n  <div class="footer">\\n    <div class="container">    \\n      <div class="sixteen columns">\\n        \', escape=False)\nresponse.write(\'\\n        <div class="footer-content clearfix">\\n          <div class="copyright">\', escape=False)\nresponse.write(T(\'Copyright\'))\nresponse.write(\' &#169; 2011</div>\\n          <div style="float: right;">\\n            <a href="http://www.web2py.com/">\\n            <img style="padding-bottom: 0;" src="\', escape=False)\nresponse.write(URL(\'static\',\'images/poweredby.png\'))\nresponse.write(\'"/>\\n            </a>\\n          </div>\\n        </div>\\n        \', escape=False)\nresponse.write(\' \\n      </div>\\n    </div>\\n  </div>\\n-->\\n</body>\\n</html>\\n\', escape=False)'
p7
sS'snapshot'
p8
(dp9
S'exception'
p10
(dp11
S'__hash__'
p12
S"<method-wrapper '__hash__' of exceptions.NameError object>"
p13
sS'__setattr__'
p14
S"<method-wrapper '__setattr__' of exceptions.NameError object>"
p15
sS'__reduce_ex__'
p16
S'<built-in method __reduce_ex__ of exceptions.NameError object>'
p17
sS'__getslice__'
p18
S"<method-wrapper '__getslice__' of exceptions.NameError object>"
p19
sS'__getitem__'
p20
S"<method-wrapper '__getitem__' of exceptions.NameError object>"
p21
sS'__setstate__'
p22
S'<built-in method __setstate__ of exceptions.NameError object>'
p23
sS'__reduce__'
p24
S'<built-in method __reduce__ of exceptions.NameError object>'
p25
sS'__str__'
p26
S"<method-wrapper '__str__' of exceptions.NameError object>"
p27
sS'__format__'
p28
S'<built-in method __format__ of exceptions.NameError object>'
p29
sS'__getattribute__'
p30
S"<method-wrapper '__getattribute__' of exceptions.NameError object>"
p31
sS'__class__'
p32
S"<type 'exceptions.NameError'>"
p33
sS'__unicode__'
p34
S'<built-in method __unicode__ of exceptions.NameError object>'
p35
sS'__delattr__'
p36
S"<method-wrapper '__delattr__' of exceptions.NameError object>"
p37
sS'__subclasshook__'
p38
S'<built-in method __subclasshook__ of type object>'
p39
sS'__repr__'
p40
S"<method-wrapper '__repr__' of exceptions.NameError object>"
p41
sS'args'
p42
S'("name \'comment\' is not defined",)'
p43
sS'__dict__'
p44
S'{}'
p45
sS'__sizeof__'
p46
S'<built-in method __sizeof__ of exceptions.NameError object>'
p47
sS'__doc__'
p48
S"'Name not found globally.'"
p49
sS'__init__'
p50
S"<method-wrapper '__init__' of exceptions.NameError object>"
p51
sS'__new__'
p52
S'<built-in method __new__ of type object>'
p53
ssS'evalue'
p54
S"name 'comment' is not defined"
p55
sS'request'
p56
ccopy_reg
_reconstructor
p57
(cgluon.html
BEAUTIFY
p58
c__builtin__
object
p59
NtRp60
(dp61
S'attributes'
p62
(dp63
sS'components'
p64
(lp65
g57
(cgluon.html
TABLE
p66
g59
NtRp67
(dp68
g62
(dp69
S'level'
p70
I5
ssS'parent'
p71
Nsg64
(lp72
g57
(cgluon.html
TR
p73
g59
NtRp74
(dp75
g62
(dp76
sg71
g67
sg64
(lp77
g57
(cgluon.html
TD
p78
g59
NtRp79
(dp80
g62
(dp81
S'_style'
p82
S'font-weight:bold;vertical-align:top'
p83
ssg71
g74
sg64
(lp84
S'ajax'
p85
asbag57
(g78
g59
NtRp86
(dp87
g62
(dp88
S'_valign'
p89
S'top'
p90
ssg71
g74
sg64
(lp91
S':'
asbag57
(g78
g59
NtRp92
(dp93
g62
(dp94
sg71
g74
sg64
(lp95
g57
(g58
g59
NtRp96
(dp97
g62
(dp98
g70
I5
ssg71
g92
sg64
(lp99
S'False'
p100
asbasbasbag57
(g73
g59
NtRp101
(dp102
g62
(dp103
sg71
g67
sg64
(lp104
g57
(g78
g59
NtRp105
(dp106
g62
(dp107
g82
g83
ssg71
g101
sg64
(lp108
S'application'
p109
asbag57
(g78
g59
NtRp110
(dp111
g62
(dp112
g89
g90
ssg71
g101
sg64
(lp113
S':'
asbag57
(g78
g59
NtRp114
(dp115
g62
(dp116
sg71
g101
sg64
(lp117
g57
(g58
g59
NtRp118
(dp119
g62
(dp120
g70
I5
ssg71
g114
sg64
(lp121
S'PhotoUpload'
p122
asbasbasbag57
(g73
g59
NtRp123
(dp124
g62
(dp125
sg71
g67
sg64
(lp126
g57
(g78
g59
NtRp127
(dp128
g62
(dp129
g82
g83
ssg71
g123
sg64
(lp130
g42
asbag57
(g78
g59
NtRp131
(dp132
g62
(dp133
g89
g90
ssg71
g123
sg64
(lp134
S':'
asbag57
(g78
g59
NtRp135
(dp136
g62
(dp137
sg71
g123
sg64
(lp138
g57
(g58
g59
NtRp139
(dp140
g62
(dp141
g70
I5
ssg71
g135
sg64
(lp142
g57
(g66
g59
NtRp143
(dp144
g62
(dp145
g70
I4
ssg71
Nsg64
(lp146
g57
(g73
g59
NtRp147
(dp148
g62
(dp149
sg71
g143
sg64
(lp150
g57
(g78
g59
NtRp151
(dp152
g62
(dp153
sg71
g147
sg64
(lp154
g57
(g58
g59
NtRp155
(dp156
g62
(dp157
g70
I4
ssg71
g151
sg64
(lp158
S'4'
asbasbasbasbasbasbasbag57
(g73
g59
NtRp159
(dp160
g62
(dp161
sg71
g67
sg64
(lp162
g57
(g78
g59
NtRp163
(dp164
g62
(dp165
g82
g83
ssg71
g159
sg64
(lp166
S'body'
p167
asbag57
(g78
g59
NtRp168
(dp169
g62
(dp170
g89
g90
ssg71
g159
sg64
(lp171
S':'
asbag57
(g78
g59
NtRp172
(dp173
g62
(dp174
sg71
g159
sg64
(lp175
g57
(g58
g59
NtRp176
(dp177
g62
(dp178
g70
I5
ssg71
g172
sg64
(lp179
S'<cStringIO.StringO object at 0xaf590d40>'
p180
asbasbasbag57
(g73
g59
NtRp181
(dp182
g62
(dp183
sg71
g67
sg64
(lp184
g57
(g78
g59
NtRp185
(dp186
g62
(dp187
g82
g83
ssg71
g181
sg64
(lp188
S'client'
p189
asbag57
(g78
g59
NtRp190
(dp191
g62
(dp192
g89
g90
ssg71
g181
sg64
(lp193
S':'
asbag57
(g78
g59
NtRp194
(dp195
g62
(dp196
sg71
g181
sg64
(lp197
g57
(g58
g59
NtRp198
(dp199
g62
(dp200
g70
I5
ssg71
g194
sg64
(lp201
S'127.0.0.1'
p202
asbasbasbag57
(g73
g59
NtRp203
(dp204
g62
(dp205
sg71
g67
sg64
(lp206
g57
(g78
g59
NtRp207
(dp208
g62
(dp209
g82
g83
ssg71
g203
sg64
(lp210
S'controller'
p211
asbag57
(g78
g59
NtRp212
(dp213
g62
(dp214
g89
g90
ssg71
g203
sg64
(lp215
S':'
asbag57
(g78
g59
NtRp216
(dp217
g62
(dp218
sg71
g203
sg64
(lp219
g57
(g58
g59
NtRp220
(dp221
g62
(dp222
g70
I5
ssg71
g216
sg64
(lp223
S'default'
p224
asbasbasbag57
(g73
g59
NtRp225
(dp226
g62
(dp227
sg71
g67
sg64
(lp228
g57
(g78
g59
NtRp229
(dp230
g62
(dp231
g82
g83
ssg71
g225
sg64
(lp232
S'cookies'
p233
asbag57
(g78
g59
NtRp234
(dp235
g62
(dp236
g89
g90
ssg71
g225
sg64
(lp237
S':'
asbag57
(g78
g59
NtRp238
(dp239
g62
(dp240
sg71
g225
sg64
(lp241
g57
(g58
g59
NtRp242
(dp243
g62
(dp244
g70
I5
ssg71
g238
sg64
(lp245
g57
(g66
g59
NtRp246
(dp247
g62
(dp248
g70
I4
ssg71
Nsg64
(lp249
g57
(g73
g59
NtRp250
(dp251
g62
(dp252
sg71
g246
sg64
(lp253
g57
(g78
g59
NtRp254
(dp255
g62
(dp256
g82
g83
ssg71
g250
sg64
(lp257
S'session_id_admin'
p258
asbag57
(g78
g59
NtRp259
(dp260
g62
(dp261
g89
g90
ssg71
g250
sg64
(lp262
S':'
asbag57
(g78
g59
NtRp263
(dp264
g62
(dp265
sg71
g250
sg64
(lp266
g57
(g58
g59
NtRp267
(dp268
g62
(dp269
g70
I4
ssg71
g263
sg64
(lp270
g57
(g66
g59
NtRp271
(dp272
g62
(dp273
g70
I3
ssg71
Nsg64
(lp274
g57
(g73
g59
NtRp275
(dp276
g62
(dp277
sg71
g271
sg64
(lp278
g57
(g78
g59
NtRp279
(dp280
g62
(dp281
g82
g83
ssg71
g275
sg64
(lp282
S'comment'
p283
asbag57
(g78
g59
NtRp284
(dp285
g62
(dp286
g89
g90
ssg71
g275
sg64
(lp287
S':'
asbag57
(g78
g59
NtRp288
(dp289
g62
(dp290
sg71
g275
sg64
(lp291
g57
(g58
g59
NtRp292
(dp293
g62
(dp294
g70
I3
ssg71
g288
sg64
(lp295
S''
asbasbasbag57
(g73
g59
NtRp296
(dp297
g62
(dp298
sg71
g271
sg64
(lp299
g57
(g78
g59
NtRp300
(dp301
g62
(dp302
g82
g83
ssg71
g296
sg64
(lp303
S'domain'
p304
asbag57
(g78
g59
NtRp305
(dp306
g62
(dp307
g89
g90
ssg71
g296
sg64
(lp308
S':'
asbag57
(g78
g59
NtRp309
(dp310
g62
(dp311
sg71
g296
sg64
(lp312
g57
(g58
g59
NtRp313
(dp314
g62
(dp315
g70
I3
ssg71
g309
sg64
(lp316
S''
asbasbasbag57
(g73
g59
NtRp317
(dp318
g62
(dp319
sg71
g271
sg64
(lp320
g57
(g78
g59
NtRp321
(dp322
g62
(dp323
g82
g83
ssg71
g317
sg64
(lp324
S'expires'
p325
asbag57
(g78
g59
NtRp326
(dp327
g62
(dp328
g89
g90
ssg71
g317
sg64
(lp329
S':'
asbag57
(g78
g59
NtRp330
(dp331
g62
(dp332
sg71
g317
sg64
(lp333
g57
(g58
g59
NtRp334
(dp335
g62
(dp336
g70
I3
ssg71
g330
sg64
(lp337
S''
asbasbasbag57
(g73
g59
NtRp338
(dp339
g62
(dp340
sg71
g271
sg64
(lp341
g57
(g78
g59
NtRp342
(dp343
g62
(dp344
g82
g83
ssg71
g338
sg64
(lp345
S'httponly'
p346
asbag57
(g78
g59
NtRp347
(dp348
g62
(dp349
g89
g90
ssg71
g338
sg64
(lp350
S':'
asbag57
(g78
g59
NtRp351
(dp352
g62
(dp353
sg71
g338
sg64
(lp354
g57
(g58
g59
NtRp355
(dp356
g62
(dp357
g70
I3
ssg71
g351
sg64
(lp358
S''
asbasbasbag57
(g73
g59
NtRp359
(dp360
g62
(dp361
sg71
g271
sg64
(lp362
g57
(g78
g59
NtRp363
(dp364
g62
(dp365
g82
g83
ssg71
g359
sg64
(lp366
S'max-age'
p367
asbag57
(g78
g59
NtRp368
(dp369
g62
(dp370
g89
g90
ssg71
g359
sg64
(lp371
S':'
asbag57
(g78
g59
NtRp372
(dp373
g62
(dp374
sg71
g359
sg64
(lp375
g57
(g58
g59
NtRp376
(dp377
g62
(dp378
g70
I3
ssg71
g372
sg64
(lp379
S''
asbasbasbag57
(g73
g59
NtRp380
(dp381
g62
(dp382
sg71
g271
sg64
(lp383
g57
(g78
g59
NtRp384
(dp385
g62
(dp386
g82
g83
ssg71
g380
sg64
(lp387
S'path'
p388
asbag57
(g78
g59
NtRp389
(dp390
g62
(dp391
g89
g90
ssg71
g380
sg64
(lp392
S':'
asbag57
(g78
g59
NtRp393
(dp394
g62
(dp395
sg71
g380
sg64
(lp396
g57
(g58
g59
NtRp397
(dp398
g62
(dp399
g70
I3
ssg71
g393
sg64
(lp400
S''
asbasbasbag57
(g73
g59
NtRp401
(dp402
g62
(dp403
sg71
g271
sg64
(lp404
g57
(g78
g59
NtRp405
(dp406
g62
(dp407
g82
g83
ssg71
g401
sg64
(lp408
S'secure'
p409
asbag57
(g78
g59
NtRp410
(dp411
g62
(dp412
g89
g90
ssg71
g401
sg64
(lp413
S':'
asbag57
(g78
g59
NtRp414
(dp415
g62
(dp416
sg71
g401
sg64
(lp417
g57
(g58
g59
NtRp418
(dp419
g62
(dp420
g70
I3
ssg71
g414
sg64
(lp421
S''
asbasbasbag57
(g73
g59
NtRp422
(dp423
g62
(dp424
sg71
g271
sg64
(lp425
g57
(g78
g59
NtRp426
(dp427
g62
(dp428
g82
g83
ssg71
g422
sg64
(lp429
S'version'
p430
asbag57
(g78
g59
NtRp431
(dp432
g62
(dp433
g89
g90
ssg71
g422
sg64
(lp434
S':'
asbag57
(g78
g59
NtRp435
(dp436
g62
(dp437
sg71
g422
sg64
(lp438
g57
(g58
g59
NtRp439
(dp440
g62
(dp441
g70
I3
ssg71
g435
sg64
(lp442
S''
asbasbasbasbasbasbasbag57
(g73
g59
NtRp443
(dp444
g62
(dp445
sg71
g246
sg64
(lp446
g57
(g78
g59
NtRp447
(dp448
g62
(dp449
g82
g83
ssg71
g443
sg64
(lp450
S'session_id_photoupload'
p451
asbag57
(g78
g59
NtRp452
(dp453
g62
(dp454
g89
g90
ssg71
g443
sg64
(lp455
S':'
asbag57
(g78
g59
NtRp456
(dp457
g62
(dp458
sg71
g443
sg64
(lp459
g57
(g58
g59
NtRp460
(dp461
g62
(dp462
g70
I4
ssg71
g456
sg64
(lp463
g57
(g66
g59
NtRp464
(dp465
g62
(dp466
g70
I3
ssg71
Nsg64
(lp467
g57
(g73
g59
NtRp468
(dp469
g62
(dp470
sg71
g464
sg64
(lp471
g57
(g78
g59
NtRp472
(dp473
g62
(dp474
g82
g83
ssg71
g468
sg64
(lp475
g283
asbag57
(g78
g59
NtRp476
(dp477
g62
(dp478
g89
g90
ssg71
g468
sg64
(lp479
S':'
asbag57
(g78
g59
NtRp480
(dp481
g62
(dp482
sg71
g468
sg64
(lp483
g57
(g58
g59
NtRp484
(dp485
g62
(dp486
g70
I3
ssg71
g480
sg64
(lp487
S''
asbasbasbag57
(g73
g59
NtRp488
(dp489
g62
(dp490
sg71
g464
sg64
(lp491
g57
(g78
g59
NtRp492
(dp493
g62
(dp494
g82
g83
ssg71
g488
sg64
(lp495
g304
asbag57
(g78
g59
NtRp496
(dp497
g62
(dp498
g89
g90
ssg71
g488
sg64
(lp499
S':'
asbag57
(g78
g59
NtRp500
(dp501
g62
(dp502
sg71
g488
sg64
(lp503
g57
(g58
g59
NtRp504
(dp505
g62
(dp506
g70
I3
ssg71
g500
sg64
(lp507
S''
asbasbasbag57
(g73
g59
NtRp508
(dp509
g62
(dp510
sg71
g464
sg64
(lp511
g57
(g78
g59
NtRp512
(dp513
g62
(dp514
g82
g83
ssg71
g508
sg64
(lp515
g325
asbag57
(g78
g59
NtRp516
(dp517
g62
(dp518
g89
g90
ssg71
g508
sg64
(lp519
S':'
asbag57
(g78
g59
NtRp520
(dp521
g62
(dp522
sg71
g508
sg64
(lp523
g57
(g58
g59
NtRp524
(dp525
g62
(dp526
g70
I3
ssg71
g520
sg64
(lp527
S''
asbasbasbag57
(g73
g59
NtRp528
(dp529
g62
(dp530
sg71
g464
sg64
(lp531
g57
(g78
g59
NtRp532
(dp533
g62
(dp534
g82
g83
ssg71
g528
sg64
(lp535
g346
asbag57
(g78
g59
NtRp536
(dp537
g62
(dp538
g89
g90
ssg71
g528
sg64
(lp539
S':'
asbag57
(g78
g59
NtRp540
(dp541
g62
(dp542
sg71
g528
sg64
(lp543
g57
(g58
g59
NtRp544
(dp545
g62
(dp546
g70
I3
ssg71
g540
sg64
(lp547
S''
asbasbasbag57
(g73
g59
NtRp548
(dp549
g62
(dp550
sg71
g464
sg64
(lp551
g57
(g78
g59
NtRp552
(dp553
g62
(dp554
g82
g83
ssg71
g548
sg64
(lp555
g367
asbag57
(g78
g59
NtRp556
(dp557
g62
(dp558
g89
g90
ssg71
g548
sg64
(lp559
S':'
asbag57
(g78
g59
NtRp560
(dp561
g62
(dp562
sg71
g548
sg64
(lp563
g57
(g58
g59
NtRp564
(dp565
g62
(dp566
g70
I3
ssg71
g560
sg64
(lp567
S''
asbasbasbag57
(g73
g59
NtRp568
(dp569
g62
(dp570
sg71
g464
sg64
(lp571
g57
(g78
g59
NtRp572
(dp573
g62
(dp574
g82
g83
ssg71
g568
sg64
(lp575
g388
asbag57
(g78
g59
NtRp576
(dp577
g62
(dp578
g89
g90
ssg71
g568
sg64
(lp579
S':'
asbag57
(g78
g59
NtRp580
(dp581
g62
(dp582
sg71
g568
sg64
(lp583
g57
(g58
g59
NtRp584
(dp585
g62
(dp586
g70
I3
ssg71
g580
sg64
(lp587
S''
asbasbasbag57
(g73
g59
NtRp588
(dp589
g62
(dp590
sg71
g464
sg64
(lp591
g57
(g78
g59
NtRp592
(dp593
g62
(dp594
g82
g83
ssg71
g588
sg64
(lp595
g409
asbag57
(g78
g59
NtRp596
(dp597
g62
(dp598
g89
g90
ssg71
g588
sg64
(lp599
S':'
asbag57
(g78
g59
NtRp600
(dp601
g62
(dp602
sg71
g588
sg64
(lp603
g57
(g58
g59
NtRp604
(dp605
g62
(dp606
g70
I3
ssg71
g600
sg64
(lp607
S''
asbasbasbag57
(g73
g59
NtRp608
(dp609
g62
(dp610
sg71
g464
sg64
(lp611
g57
(g78
g59
NtRp612
(dp613
g62
(dp614
g82
g83
ssg71
g608
sg64
(lp615
g430
asbag57
(g78
g59
NtRp616
(dp617
g62
(dp618
g89
g90
ssg71
g608
sg64
(lp619
S':'
asbag57
(g78
g59
NtRp620
(dp621
g62
(dp622
sg71
g608
sg64
(lp623
g57
(g58
g59
NtRp624
(dp625
g62
(dp626
g70
I3
ssg71
g620
sg64
(lp627
S''
asbasbasbasbasbasbasbag57
(g73
g59
NtRp628
(dp629
g62
(dp630
sg71
g246
sg64
(lp631
g57
(g78
g59
NtRp632
(dp633
g62
(dp634
g82
g83
ssg71
g628
sg64
(lp635
S'session_id_welcome'
p636
asbag57
(g78
g59
NtRp637
(dp638
g62
(dp639
g89
g90
ssg71
g628
sg64
(lp640
S':'
asbag57
(g78
g59
NtRp641
(dp642
g62
(dp643
sg71
g628
sg64
(lp644
g57
(g58
g59
NtRp645
(dp646
g62
(dp647
g70
I4
ssg71
g641
sg64
(lp648
g57
(g66
g59
NtRp649
(dp650
g62
(dp651
g70
I3
ssg71
Nsg64
(lp652
g57
(g73
g59
NtRp653
(dp654
g62
(dp655
sg71
g649
sg64
(lp656
g57
(g78
g59
NtRp657
(dp658
g62
(dp659
g82
g83
ssg71
g653
sg64
(lp660
g283
asbag57
(g78
g59
NtRp661
(dp662
g62
(dp663
g89
g90
ssg71
g653
sg64
(lp664
S':'
asbag57
(g78
g59
NtRp665
(dp666
g62
(dp667
sg71
g653
sg64
(lp668
g57
(g58
g59
NtRp669
(dp670
g62
(dp671
g70
I3
ssg71
g665
sg64
(lp672
S''
asbasbasbag57
(g73
g59
NtRp673
(dp674
g62
(dp675
sg71
g649
sg64
(lp676
g57
(g78
g59
NtRp677
(dp678
g62
(dp679
g82
g83
ssg71
g673
sg64
(lp680
g304
asbag57
(g78
g59
NtRp681
(dp682
g62
(dp683
g89
g90
ssg71
g673
sg64
(lp684
S':'
asbag57
(g78
g59
NtRp685
(dp686
g62
(dp687
sg71
g673
sg64
(lp688
g57
(g58
g59
NtRp689
(dp690
g62
(dp691
g70
I3
ssg71
g685
sg64
(lp692
S''
asbasbasbag57
(g73
g59
NtRp693
(dp694
g62
(dp695
sg71
g649
sg64
(lp696
g57
(g78
g59
NtRp697
(dp698
g62
(dp699
g82
g83
ssg71
g693
sg64
(lp700
g325
asbag57
(g78
g59
NtRp701
(dp702
g62
(dp703
g89
g90
ssg71
g693
sg64
(lp704
S':'
asbag57
(g78
g59
NtRp705
(dp706
g62
(dp707
sg71
g693
sg64
(lp708
g57
(g58
g59
NtRp709
(dp710
g62
(dp711
g70
I3
ssg71
g705
sg64
(lp712
S''
asbasbasbag57
(g73
g59
NtRp713
(dp714
g62
(dp715
sg71
g649
sg64
(lp716
g57
(g78
g59
NtRp717
(dp718
g62
(dp719
g82
g83
ssg71
g713
sg64
(lp720
g346
asbag57
(g78
g59
NtRp721
(dp722
g62
(dp723
g89
g90
ssg71
g713
sg64
(lp724
S':'
asbag57
(g78
g59
NtRp725
(dp726
g62
(dp727
sg71
g713
sg64
(lp728
g57
(g58
g59
NtRp729
(dp730
g62
(dp731
g70
I3
ssg71
g725
sg64
(lp732
S''
asbasbasbag57
(g73
g59
NtRp733
(dp734
g62
(dp735
sg71
g649
sg64
(lp736
g57
(g78
g59
NtRp737
(dp738
g62
(dp739
g82
g83
ssg71
g733
sg64
(lp740
g367
asbag57
(g78
g59
NtRp741
(dp742
g62
(dp743
g89
g90
ssg71
g733
sg64
(lp744
S':'
asbag57
(g78
g59
NtRp745
(dp746
g62
(dp747
sg71
g733
sg64
(lp748
g57
(g58
g59
NtRp749
(dp750
g62
(dp751
g70
I3
ssg71
g745
sg64
(lp752
S''
asbasbasbag57
(g73
g59
NtRp753
(dp754
g62
(dp755
sg71
g649
sg64
(lp756
g57
(g78
g59
NtRp757
(dp758
g62
(dp759
g82
g83
ssg71
g753
sg64
(lp760
g388
asbag57
(g78
g59
NtRp761
(dp762
g62
(dp763
g89
g90
ssg71
g753
sg64
(lp764
S':'
asbag57
(g78
g59
NtRp765
(dp766
g62
(dp767
sg71
g753
sg64
(lp768
g57
(g58
g59
NtRp769
(dp770
g62
(dp771
g70
I3
ssg71
g765
sg64
(lp772
S''
asbasbasbag57
(g73
g59
NtRp773
(dp774
g62
(dp775
sg71
g649
sg64
(lp776
g57
(g78
g59
NtRp777
(dp778
g62
(dp779
g82
g83
ssg71
g773
sg64
(lp780
g409
asbag57
(g78
g59
NtRp781
(dp782
g62
(dp783
g89
g90
ssg71
g773
sg64
(lp784
S':'
asbag57
(g78
g59
NtRp785
(dp786
g62
(dp787
sg71
g773
sg64
(lp788
g57
(g58
g59
NtRp789
(dp790
g62
(dp791
g70
I3
ssg71
g785
sg64
(lp792
S''
asbasbasbag57
(g73
g59
NtRp793
(dp794
g62
(dp795
sg71
g649
sg64
(lp796
g57
(g78
g59
NtRp797
(dp798
g62
(dp799
g82
g83
ssg71
g793
sg64
(lp800
g430
asbag57
(g78
g59
NtRp801
(dp802
g62
(dp803
g89
g90
ssg71
g793
sg64
(lp804
S':'
asbag57
(g78
g59
NtRp805
(dp806
g62
(dp807
sg71
g793
sg64
(lp808
g57
(g58
g59
NtRp809
(dp810
g62
(dp811
g70
I3
ssg71
g805
sg64
(lp812
S''
asbasbasbasbasbasbasbasbasbasbasbag57
(g73
g59
NtRp813
(dp814
g62
(dp815
sg71
g67
sg64
(lp816
g57
(g78
g59
NtRp817
(dp818
g62
(dp819
g82
g83
ssg71
g813
sg64
(lp820
S'env'
p821
asbag57
(g78
g59
NtRp822
(dp823
g62
(dp824
g89
g90
ssg71
g813
sg64
(lp825
S':'
asbag57
(g78
g59
NtRp826
(dp827
g62
(dp828
sg71
g813
sg64
(lp829
g57
(g58
g59
NtRp830
(dp831
g62
(dp832
g70
I5
ssg71
g826
sg64
(lp833
g57
(g66
g59
NtRp834
(dp835
g62
(dp836
g70
I4
ssg71
Nsg64
(lp837
g57
(g73
g59
NtRp838
(dp839
g62
(dp840
sg71
g834
sg64
(lp841
g57
(g78
g59
NtRp842
(dp843
g62
(dp844
g82
g83
ssg71
g838
sg64
(lp845
S'app_folders'
p846
asbag57
(g78
g59
NtRp847
(dp848
g62
(dp849
g89
g90
ssg71
g838
sg64
(lp850
S':'
asbag57
(g78
g59
NtRp851
(dp852
g62
(dp853
sg71
g838
sg64
(lp854
g57
(g58
g59
NtRp855
(dp856
g62
(dp857
g70
I4
ssg71
g851
sg64
(lp858
S"set(['/home/anu/Desktop/M12/ssad m12/web2py/applications/PhotoUpload/', '/home/anu/Desktop/M12/ssad m12/web2py/applications/welcome/', '/home/anu/Desktop/M12/ssad m12/web2py/applications/admin/'])"
p859
asbasbasbag57
(g73
g59
NtRp860
(dp861
g62
(dp862
sg71
g834
sg64
(lp863
g57
(g78
g59
NtRp864
(dp865
g62
(dp866
g82
g83
ssg71
g860
sg64
(lp867
S'applications_parent'
p868
asbag57
(g78
g59
NtRp869
(dp870
g62
(dp871
g89
g90
ssg71
g860
sg64
(lp872
S':'
asbag57
(g78
g59
NtRp873
(dp874
g62
(dp875
sg71
g860
sg64
(lp876
g57
(g58
g59
NtRp877
(dp878
g62
(dp879
g70
I4
ssg71
g873
sg64
(lp880
S'/home/anu/Desktop/M12/ssad m12/web2py'
p881
asbasbasbag57
(g73
g59
NtRp882
(dp883
g62
(dp884
sg71
g834
sg64
(lp885
g57
(g78
g59
NtRp886
(dp887
g62
(dp888
g82
g83
ssg71
g882
sg64
(lp889
S'cmd_args'
p890
asbag57
(g78
g59
NtRp891
(dp892
g62
(dp893
g89
g90
ssg71
g882
sg64
(lp894
S':'
asbag57
(g78
g59
NtRp895
(dp896
g62
(dp897
sg71
g882
sg64
(lp898
g57
(g58
g59
NtRp899
(dp900
g62
(dp901
g70
I4
ssg71
g895
sg64
(lp902
g57
(g66
g59
NtRp903
(dp904
g62
(dp905
g70
I3
ssg71
Nsg64
(lp906
sbasbasbasbag57
(g73
g59
NtRp907
(dp908
g62
(dp909
sg71
g834
sg64
(lp910
g57
(g78
g59
NtRp911
(dp912
g62
(dp913
g82
g83
ssg71
g907
sg64
(lp914
S'cmd_options'
p915
asbag57
(g78
g59
NtRp916
(dp917
g62
(dp918
g89
g90
ssg71
g907
sg64
(lp919
S':'
asbag57
(g78
g59
NtRp920
(dp921
g62
(dp922
sg71
g907
sg64
(lp923
g57
(g58
g59
NtRp924
(dp925
g62
(dp926
g70
I4
ssg71
g920
sg64
(lp927
S"<Values at 0xa53186c: {'verbose': False, 'ip': '127.0.0.1', 'shutdown_timeout': 5, 'taskbar': False, 'nocron': False, 'pid_filename': 'httpserver.pid', 'maxthreads': None, 'softcron': False, 'server_name': 'COMPAQ', 'bpython': False, 'nogui': False, 'port': 8000, 'extcron': False, 'debuglevel': 30, 'test': None, 'folder': '/home/anu/Desktop/M12/ssad m12/web2py', 'config': '', 'import_models': False, 'winservice': '', 'shell': None, 'run': '', 'log_filename': 'httpserver.log', 'args': [''], 'socket_timeout': 5, 'ssl_ca_certificate': None, 'scheduler': None, 'profiler_filename': None, 'ssl_private_key': '', 'password': 'anu', 'request_queue_size': 5, 'ssl_certificate': '', 'cronjob': False, 'numthreads': None, 'quiet': False, 'interfaces': None, 'minthreads': None, 'timeout': 10, 'plain': False, 'nobanner': False}>"
p928
asbasbasbag57
(g73
g59
NtRp929
(dp930
g62
(dp931
sg71
g834
sg64
(lp932
g57
(g78
g59
NtRp933
(dp934
g62
(dp935
g82
g83
ssg71
g929
sg64
(lp936
S'db_sessions'
p937
asbag57
(g78
g59
NtRp938
(dp939
g62
(dp940
g89
g90
ssg71
g929
sg64
(lp941
S':'
asbag57
(g78
g59
NtRp942
(dp943
g62
(dp944
sg71
g929
sg64
(lp945
g57
(g58
g59
NtRp946
(dp947
g62
(dp948
g70
I4
ssg71
g942
sg64
(lp949
S'set([])'
p950
asbasbasbag57
(g73
g59
NtRp951
(dp952
g62
(dp953
sg71
g834
sg64
(lp954
g57
(g78
g59
NtRp955
(dp956
g62
(dp957
g82
g83
ssg71
g951
sg64
(lp958
S'debugging'
p959
asbag57
(g78
g59
NtRp960
(dp961
g62
(dp962
g89
g90
ssg71
g951
sg64
(lp963
S':'
asbag57
(g78
g59
NtRp964
(dp965
g62
(dp966
sg71
g951
sg64
(lp967
g57
(g58
g59
NtRp968
(dp969
g62
(dp970
g70
I4
ssg71
g964
sg64
(lp971
g100
asbasbasbag57
(g73
g59
NtRp972
(dp973
g62
(dp974
sg71
g834
sg64
(lp975
g57
(g78
g59
NtRp976
(dp977
g62
(dp978
g82
g83
ssg71
g972
sg64
(lp979
S'gluon_parent'
p980
asbag57
(g78
g59
NtRp981
(dp982
g62
(dp983
g89
g90
ssg71
g972
sg64
(lp984
S':'
asbag57
(g78
g59
NtRp985
(dp986
g62
(dp987
sg71
g972
sg64
(lp988
g57
(g58
g59
NtRp989
(dp990
g62
(dp991
g70
I4
ssg71
g985
sg64
(lp992
S'/home/anu/Desktop/M12/ssad m12/web2py'
p993
asbasbasbag57
(g73
g59
NtRp994
(dp995
g62
(dp996
sg71
g834
sg64
(lp997
g57
(g78
g59
NtRp998
(dp999
g62
(dp1000
g82
g83
ssg71
g994
sg64
(lp1001
S'http_accept'
p1002
asbag57
(g78
g59
NtRp1003
(dp1004
g62
(dp1005
g89
g90
ssg71
g994
sg64
(lp1006
S':'
asbag57
(g78
g59
NtRp1007
(dp1008
g62
(dp1009
sg71
g994
sg64
(lp1010
g57
(g58
g59
NtRp1011
(dp1012
g62
(dp1013
g70
I4
ssg71
g1007
sg64
(lp1014
S'text/html,application/xhtml+xml,application/xml;q=0.9,*/*;q=0.8'
p1015
asbasbasbag57
(g73
g59
NtRp1016
(dp1017
g62
(dp1018
sg71
g834
sg64
(lp1019
g57
(g78
g59
NtRp1020
(dp1021
g62
(dp1022
g82
g83
ssg71
g1016
sg64
(lp1023
S'http_accept_encoding'
p1024
asbag57
(g78
g59
NtRp1025
(dp1026
g62
(dp1027
g89
g90
ssg71
g1016
sg64
(lp1028
S':'
asbag57
(g78
g59
NtRp1029
(dp1030
g62
(dp1031
sg71
g1016
sg64
(lp1032
g57
(g58
g59
NtRp1033
(dp1034
g62
(dp1035
g70
I4
ssg71
g1029
sg64
(lp1036
S'gzip, deflate'
p1037
asbasbasbag57
(g73
g59
NtRp1038
(dp1039
g62
(dp1040
sg71
g834
sg64
(lp1041
g57
(g78
g59
NtRp1042
(dp1043
g62
(dp1044
g82
g83
ssg71
g1038
sg64
(lp1045
S'http_accept_language'
p1046
asbag57
(g78
g59
NtRp1047
(dp1048
g62
(dp1049
g89
g90
ssg71
g1038
sg64
(lp1050
S':'
asbag57
(g78
g59
NtRp1051
(dp1052
g62
(dp1053
sg71
g1038
sg64
(lp1054
g57
(g58
g59
NtRp1055
(dp1056
g62
(dp1057
g70
I4
ssg71
g1051
sg64
(lp1058
S'en-us,en;q=0.5'
p1059
asbasbasbag57
(g73
g59
NtRp1060
(dp1061
g62
(dp1062
sg71
g834
sg64
(lp1063
g57
(g78
g59
NtRp1064
(dp1065
g62
(dp1066
g82
g83
ssg71
g1060
sg64
(lp1067
S'http_connection'
p1068
asbag57
(g78
g59
NtRp1069
(dp1070
g62
(dp1071
g89
g90
ssg71
g1060
sg64
(lp1072
S':'
asbag57
(g78
g59
NtRp1073
(dp1074
g62
(dp1075
sg71
g1060
sg64
(lp1076
g57
(g58
g59
NtRp1077
(dp1078
g62
(dp1079
g70
I4
ssg71
g1073
sg64
(lp1080
S'keep-alive'
p1081
asbasbasbag57
(g73
g59
NtRp1082
(dp1083
g62
(dp1084
sg71
g834
sg64
(lp1085
g57
(g78
g59
NtRp1086
(dp1087
g62
(dp1088
g82
g83
ssg71
g1082
sg64
(lp1089
S'http_cookie'
p1090
asbag57
(g78
g59
NtRp1091
(dp1092
g62
(dp1093
g89
g90
ssg71
g1082
sg64
(lp1094
S':'
asbag57
(g78
g59
NtRp1095
(dp1096
g62
(dp1097
sg71
g1082
sg64
(lp1098
g57
(g58
g59
NtRp1099
(dp1100
g62
(dp1101
g70
I4
ssg71
g1095
sg64
(lp1102
S'session_id_welcome=127.0.0.1-31c94a36-bea0-4344-878c-58b0c691100c; session_id_photoupload=127.0.0.1-0f635432-6687-421f-a06a-9fc402d47a2b; session_id_admin=127.0.0.1-cfb14c6d-55eb-4473-b2f9-77bd1ed3ee40'
p1103
asbasbasbag57
(g73
g59
NtRp1104
(dp1105
g62
(dp1106
sg71
g834
sg64
(lp1107
g57
(g78
g59
NtRp1108
(dp1109
g62
(dp1110
g82
g83
ssg71
g1104
sg64
(lp1111
S'http_host'
p1112
asbag57
(g78
g59
NtRp1113
(dp1114
g62
(dp1115
g89
g90
ssg71
g1104
sg64
(lp1116
S':'
asbag57
(g78
g59
NtRp1117
(dp1118
g62
(dp1119
sg71
g1104
sg64
(lp1120
g57
(g58
g59
NtRp1121
(dp1122
g62
(dp1123
g70
I4
ssg71
g1117
sg64
(lp1124
S'127.0.0.1:8000'
p1125
asbasbasbag57
(g73
g59
NtRp1126
(dp1127
g62
(dp1128
sg71
g834
sg64
(lp1129
g57
(g78
g59
NtRp1130
(dp1131
g62
(dp1132
g82
g83
ssg71
g1126
sg64
(lp1133
S'http_referer'
p1134
asbag57
(g78
g59
NtRp1135
(dp1136
g62
(dp1137
g89
g90
ssg71
g1126
sg64
(lp1138
S':'
asbag57
(g78
g59
NtRp1139
(dp1140
g62
(dp1141
sg71
g1126
sg64
(lp1142
g57
(g58
g59
NtRp1143
(dp1144
g62
(dp1145
g70
I4
ssg71
g1139
sg64
(lp1146
S'http://127.0.0.1:8000/PhotoUpload/default/index'
p1147
asbasbasbag57
(g73
g59
NtRp1148
(dp1149
g62
(dp1150
sg71
g834
sg64
(lp1151
g57
(g78
g59
NtRp1152
(dp1153
g62
(dp1154
g82
g83
ssg71
g1148
sg64
(lp1155
S'http_user_agent'
p1156
asbag57
(g78
g59
NtRp1157
(dp1158
g62
(dp1159
g89
g90
ssg71
g1148
sg64
(lp1160
S':'
asbag57
(g78
g59
NtRp1161
(dp1162
g62
(dp1163
sg71
g1148
sg64
(lp1164
g57
(g58
g59
NtRp1165
(dp1166
g62
(dp1167
g70
I4
ssg71
g1161
sg64
(lp1168
S'Mozilla/5.0 (X11; Ubuntu; Linux i686; rv:14.0) Gecko/20100101 Firefox/14.0.1'
p1169
asbasbasbag57
(g73
g59
NtRp1170
(dp1171
g62
(dp1172
sg71
g834
sg64
(lp1173
g57
(g78
g59
NtRp1174
(dp1175
g62
(dp1176
g82
g83
ssg71
g1170
sg64
(lp1177
S'is_jython'
p1178
asbag57
(g78
g59
NtRp1179
(dp1180
g62
(dp1181
g89
g90
ssg71
g1170
sg64
(lp1182
S':'
asbag57
(g78
g59
NtRp1183
(dp1184
g62
(dp1185
sg71
g1170
sg64
(lp1186
g57
(g58
g59
NtRp1187
(dp1188
g62
(dp1189
g70
I4
ssg71
g1183
sg64
(lp1190
g100
asbasbasbag57
(g73
g59
NtRp1191
(dp1192
g62
(dp1193
sg71
g834
sg64
(lp1194
g57
(g78
g59
NtRp1195
(dp1196
g62
(dp1197
g82
g83
ssg71
g1191
sg64
(lp1198
S'is_pypy'
p1199
asbag57
(g78
g59
NtRp1200
(dp1201
g62
(dp1202
g89
g90
ssg71
g1191
sg64
(lp1203
S':'
asbag57
(g78
g59
NtRp1204
(dp1205
g62
(dp1206
sg71
g1191
sg64
(lp1207
g57
(g58
g59
NtRp1208
(dp1209
g62
(dp1210
g70
I4
ssg71
g1204
sg64
(lp1211
g100
asbasbasbag57
(g73
g59
NtRp1212
(dp1213
g62
(dp1214
sg71
g834
sg64
(lp1215
g57
(g78
g59
NtRp1216
(dp1217
g62
(dp1218
g82
g83
ssg71
g1212
sg64
(lp1219
S'path_info'
p1220
asbag57
(g78
g59
NtRp1221
(dp1222
g62
(dp1223
g89
g90
ssg71
g1212
sg64
(lp1224
S':'
asbag57
(g78
g59
NtRp1225
(dp1226
g62
(dp1227
sg71
g1212
sg64
(lp1228
g57
(g58
g59
NtRp1229
(dp1230
g62
(dp1231
g70
I4
ssg71
g1225
sg64
(lp1232
S'/PhotoUpload/default/picture/4'
p1233
asbasbasbag57
(g73
g59
NtRp1234
(dp1235
g62
(dp1236
sg71
g834
sg64
(lp1237
g57
(g78
g59
NtRp1238
(dp1239
g62
(dp1240
g82
g83
ssg71
g1234
sg64
(lp1241
S'query_string'
p1242
asbag57
(g78
g59
NtRp1243
(dp1244
g62
(dp1245
g89
g90
ssg71
g1234
sg64
(lp1246
S':'
asbag57
(g78
g59
NtRp1247
(dp1248
g62
(dp1249
sg71
g1234
sg64
(lp1250
g57
(g58
g59
NtRp1251
(dp1252
g62
(dp1253
g70
I4
ssg71
g1247
sg64
(lp1254
S''
asbasbasbag57
(g73
g59
NtRp1255
(dp1256
g62
(dp1257
sg71
g834
sg64
(lp1258
g57
(g78
g59
NtRp1259
(dp1260
g62
(dp1261
g82
g83
ssg71
g1255
sg64
(lp1262
S'remote_addr'
p1263
asbag57
(g78
g59
NtRp1264
(dp1265
g62
(dp1266
g89
g90
ssg71
g1255
sg64
(lp1267
S':'
asbag57
(g78
g59
NtRp1268
(dp1269
g62
(dp1270
sg71
g1255
sg64
(lp1271
g57
(g58
g59
NtRp1272
(dp1273
g62
(dp1274
g70
I4
ssg71
g1268
sg64
(lp1275
g202
asbasbasbag57
(g73
g59
NtRp1276
(dp1277
g62
(dp1278
sg71
g834
sg64
(lp1279
g57
(g78
g59
NtRp1280
(dp1281
g62
(dp1282
g82
g83
ssg71
g1276
sg64
(lp1283
S'remote_port'
p1284
asbag57
(g78
g59
NtRp1285
(dp1286
g62
(dp1287
g89
g90
ssg71
g1276
sg64
(lp1288
S':'
asbag57
(g78
g59
NtRp1289
(dp1290
g62
(dp1291
sg71
g1276
sg64
(lp1292
g57
(g58
g59
NtRp1293
(dp1294
g62
(dp1295
g70
I4
ssg71
g1289
sg64
(lp1296
S'41070'
p1297
asbasbasbag57
(g73
g59
NtRp1298
(dp1299
g62
(dp1300
sg71
g834
sg64
(lp1301
g57
(g78
g59
NtRp1302
(dp1303
g62
(dp1304
g82
g83
ssg71
g1298
sg64
(lp1305
S'request_method'
p1306
asbag57
(g78
g59
NtRp1307
(dp1308
g62
(dp1309
g89
g90
ssg71
g1298
sg64
(lp1310
S':'
asbag57
(g78
g59
NtRp1311
(dp1312
g62
(dp1313
sg71
g1298
sg64
(lp1314
g57
(g58
g59
NtRp1315
(dp1316
g62
(dp1317
g70
I4
ssg71
g1311
sg64
(lp1318
S'GET'
p1319
asbasbasbag57
(g73
g59
NtRp1320
(dp1321
g62
(dp1322
sg71
g834
sg64
(lp1323
g57
(g78
g59
NtRp1324
(dp1325
g62
(dp1326
g82
g83
ssg71
g1320
sg64
(lp1327
S'script_name'
p1328
asbag57
(g78
g59
NtRp1329
(dp1330
g62
(dp1331
g89
g90
ssg71
g1320
sg64
(lp1332
S':'
asbag57
(g78
g59
NtRp1333
(dp1334
g62
(dp1335
sg71
g1320
sg64
(lp1336
g57
(g58
g59
NtRp1337
(dp1338
g62
(dp1339
g70
I4
ssg71
g1333
sg64
(lp1340
S''
asbasbasbag57
(g73
g59
NtRp1341
(dp1342
g62
(dp1343
sg71
g834
sg64
(lp1344
g57
(g78
g59
NtRp1345
(dp1346
g62
(dp1347
g82
g83
ssg71
g1341
sg64
(lp1348
S'server_name'
p1349
asbag57
(g78
g59
NtRp1350
(dp1351
g62
(dp1352
g89
g90
ssg71
g1341
sg64
(lp1353
S':'
asbag57
(g78
g59
NtRp1354
(dp1355
g62
(dp1356
sg71
g1341
sg64
(lp1357
g57
(g58
g59
NtRp1358
(dp1359
g62
(dp1360
g70
I4
ssg71
g1354
sg64
(lp1361
S'COMPAQ'
p1362
asbasbasbag57
(g73
g59
NtRp1363
(dp1364
g62
(dp1365
sg71
g834
sg64
(lp1366
g57
(g78
g59
NtRp1367
(dp1368
g62
(dp1369
g82
g83
ssg71
g1363
sg64
(lp1370
S'server_port'
p1371
asbag57
(g78
g59
NtRp1372
(dp1373
g62
(dp1374
g89
g90
ssg71
g1363
sg64
(lp1375
S':'
asbag57
(g78
g59
NtRp1376
(dp1377
g62
(dp1378
sg71
g1363
sg64
(lp1379
g57
(g58
g59
NtRp1380
(dp1381
g62
(dp1382
g70
I4
ssg71
g1376
sg64
(lp1383
S'8000'
p1384
asbasbasbag57
(g73
g59
NtRp1385
(dp1386
g62
(dp1387
sg71
g834
sg64
(lp1388
g57
(g78
g59
NtRp1389
(dp1390
g62
(dp1391
g82
g83
ssg71
g1385
sg64
(lp1392
S'server_protocol'
p1393
asbag57
(g78
g59
NtRp1394
(dp1395
g62
(dp1396
g89
g90
ssg71
g1385
sg64
(lp1397
S':'
asbag57
(g78
g59
NtRp1398
(dp1399
g62
(dp1400
sg71
g1385
sg64
(lp1401
g57
(g58
g59
NtRp1402
(dp1403
g62
(dp1404
g70
I4
ssg71
g1398
sg64
(lp1405
S'HTTP/1.1'
p1406
asbasbasbag57
(g73
g59
NtRp1407
(dp1408
g62
(dp1409
sg71
g834
sg64
(lp1410
g57
(g78
g59
NtRp1411
(dp1412
g62
(dp1413
g82
g83
ssg71
g1407
sg64
(lp1414
S'server_software'
p1415
asbag57
(g78
g59
NtRp1416
(dp1417
g62
(dp1418
g89
g90
ssg71
g1407
sg64
(lp1419
S':'
asbag57
(g78
g59
NtRp1420
(dp1421
g62
(dp1422
sg71
g1407
sg64
(lp1423
g57
(g58
g59
NtRp1424
(dp1425
g62
(dp1426
g70
I4
ssg71
g1420
sg64
(lp1427
S'Rocket 1.2.4'
p1428
asbasbasbag57
(g73
g59
NtRp1429
(dp1430
g62
(dp1431
sg71
g834
sg64
(lp1432
g57
(g78
g59
NtRp1433
(dp1434
g62
(dp1435
g82
g83
ssg71
g1429
sg64
(lp1436
S'web2py_crontype'
p1437
asbag57
(g78
g59
NtRp1438
(dp1439
g62
(dp1440
g89
g90
ssg71
g1429
sg64
(lp1441
S':'
asbag57
(g78
g59
NtRp1442
(dp1443
g62
(dp1444
sg71
g1429
sg64
(lp1445
g57
(g58
g59
NtRp1446
(dp1447
g62
(dp1448
g70
I4
ssg71
g1442
sg64
(lp1449
S'hard'
p1450
asbasbasbag57
(g73
g59
NtRp1451
(dp1452
g62
(dp1453
sg71
g834
sg64
(lp1454
g57
(g78
g59
NtRp1455
(dp1456
g62
(dp1457
g82
g83
ssg71
g1451
sg64
(lp1458
S'web2py_path'
p1459
asbag57
(g78
g59
NtRp1460
(dp1461
g62
(dp1462
g89
g90
ssg71
g1451
sg64
(lp1463
S':'
asbag57
(g78
g59
NtRp1464
(dp1465
g62
(dp1466
sg71
g1451
sg64
(lp1467
g57
(g58
g59
NtRp1468
(dp1469
g62
(dp1470
g70
I4
ssg71
g1464
sg64
(lp1471
g881
asbasbasbag57
(g73
g59
NtRp1472
(dp1473
g62
(dp1474
sg71
g834
sg64
(lp1475
g57
(g78
g59
NtRp1476
(dp1477
g62
(dp1478
g82
g83
ssg71
g1472
sg64
(lp1479
S'web2py_version'
p1480
asbag57
(g78
g59
NtRp1481
(dp1482
g62
(dp1483
g89
g90
ssg71
g1472
sg64
(lp1484
S':'
asbag57
(g78
g59
NtRp1485
(dp1486
g62
(dp1487
sg71
g1472
sg64
(lp1488
g57
(g58
g59
NtRp1489
(dp1490
g62
(dp1491
g70
I4
ssg71
g1485
sg64
(lp1492
g57
(g66
g59
NtRp1493
(dp1494
g62
(dp1495
g70
I3
ssg71
Nsg64
(lp1496
g57
(g73
g59
NtRp1497
(dp1498
g62
(dp1499
sg71
g1493
sg64
(lp1500
g57
(g78
g59
NtRp1501
(dp1502
g62
(dp1503
sg71
g1497
sg64
(lp1504
g57
(g58
g59
NtRp1505
(dp1506
g62
(dp1507
g70
I3
ssg71
g1501
sg64
(lp1508
S'1'
asbasbasbag57
(g73
g59
NtRp1509
(dp1510
g62
(dp1511
sg71
g1493
sg64
(lp1512
g57
(g78
g59
NtRp1513
(dp1514
g62
(dp1515
sg71
g1509
sg64
(lp1516
g57
(g58
g59
NtRp1517
(dp1518
g62
(dp1519
g70
I3
ssg71
g1513
sg64
(lp1520
S'99'
p1521
asbasbasbag57
(g73
g59
NtRp1522
(dp1523
g62
(dp1524
sg71
g1493
sg64
(lp1525
g57
(g78
g59
NtRp1526
(dp1527
g62
(dp1528
sg71
g1522
sg64
(lp1529
g57
(g58
g59
NtRp1530
(dp1531
g62
(dp1532
g70
I3
ssg71
g1526
sg64
(lp1533
S'7'
asbasbasbag57
(g73
g59
NtRp1534
(dp1535
g62
(dp1536
sg71
g1493
sg64
(lp1537
g57
(g78
g59
NtRp1538
(dp1539
g62
(dp1540
sg71
g1534
sg64
(lp1541
g57
(g58
g59
NtRp1542
(dp1543
g62
(dp1544
g70
I3
ssg71
g1538
sg64
(lp1545
S'datetime.datetime(2012, 3, 4, 22, 12, 8)'
p1546
asbasbasbag57
(g73
g59
NtRp1547
(dp1548
g62
(dp1549
sg71
g1493
sg64
(lp1550
g57
(g78
g59
NtRp1551
(dp1552
g62
(dp1553
sg71
g1547
sg64
(lp1554
g57
(g58
g59
NtRp1555
(dp1556
g62
(dp1557
g70
I3
ssg71
g1551
sg64
(lp1558
S'stable'
p1559
asbasbasbasbasbasbasbag57
(g73
g59
NtRp1560
(dp1561
g62
(dp1562
sg71
g834
sg64
(lp1563
g57
(g78
g59
NtRp1564
(dp1565
g62
(dp1566
g82
g83
ssg71
g1560
sg64
(lp1567
S'wsgi_errors'
p1568
asbag57
(g78
g59
NtRp1569
(dp1570
g62
(dp1571
g89
g90
ssg71
g1560
sg64
(lp1572
S':'
asbag57
(g78
g59
NtRp1573
(dp1574
g62
(dp1575
sg71
g1560
sg64
(lp1576
g57
(g58
g59
NtRp1577
(dp1578
g62
(dp1579
g70
I4
ssg71
g1573
sg64
(lp1580
S"<open file '<stderr>', mode 'w' at 0xb73250d0>"
p1581
asbasbasbag57
(g73
g59
NtRp1582
(dp1583
g62
(dp1584
sg71
g834
sg64
(lp1585
g57
(g78
g59
NtRp1586
(dp1587
g62
(dp1588
g82
g83
ssg71
g1582
sg64
(lp1589
S'wsgi_file_wrapper'
p1590
asbag57
(g78
g59
NtRp1591
(dp1592
g62
(dp1593
g89
g90
ssg71
g1582
sg64
(lp1594
S':'
asbag57
(g78
g59
NtRp1595
(dp1596
g62
(dp1597
sg71
g1582
sg64
(lp1598
g57
(g58
g59
NtRp1599
(dp1600
g62
(dp1601
g70
I4
ssg71
g1595
sg64
(lp1602
S'<class wsgiref.util.FileWrapper at 0xa507e3c>'
p1603
asbasbasbag57
(g73
g59
NtRp1604
(dp1605
g62
(dp1606
sg71
g834
sg64
(lp1607
g57
(g78
g59
NtRp1608
(dp1609
g62
(dp1610
g82
g83
ssg71
g1604
sg64
(lp1611
S'wsgi_input'
p1612
asbag57
(g78
g59
NtRp1613
(dp1614
g62
(dp1615
g89
g90
ssg71
g1604
sg64
(lp1616
S':'
asbag57
(g78
g59
NtRp1617
(dp1618
g62
(dp1619
sg71
g1604
sg64
(lp1620
g57
(g58
g59
NtRp1621
(dp1622
g62
(dp1623
g70
I4
ssg71
g1617
sg64
(lp1624
S'<socket._fileobject object at 0xae5a40ec>'
p1625
asbasbasbag57
(g73
g59
NtRp1626
(dp1627
g62
(dp1628
sg71
g834
sg64
(lp1629
g57
(g78
g59
NtRp1630
(dp1631
g62
(dp1632
g82
g83
ssg71
g1626
sg64
(lp1633
S'wsgi_multiprocess'
p1634
asbag57
(g78
g59
NtRp1635
(dp1636
g62
(dp1637
g89
g90
ssg71
g1626
sg64
(lp1638
S':'
asbag57
(g78
g59
NtRp1639
(dp1640
g62
(dp1641
sg71
g1626
sg64
(lp1642
g57
(g58
g59
NtRp1643
(dp1644
g62
(dp1645
g70
I4
ssg71
g1639
sg64
(lp1646
g100
asbasbasbag57
(g73
g59
NtRp1647
(dp1648
g62
(dp1649
sg71
g834
sg64
(lp1650
g57
(g78
g59
NtRp1651
(dp1652
g62
(dp1653
g82
g83
ssg71
g1647
sg64
(lp1654
S'wsgi_multithread'
p1655
asbag57
(g78
g59
NtRp1656
(dp1657
g62
(dp1658
g89
g90
ssg71
g1647
sg64
(lp1659
S':'
asbag57
(g78
g59
NtRp1660
(dp1661
g62
(dp1662
sg71
g1647
sg64
(lp1663
g57
(g58
g59
NtRp1664
(dp1665
g62
(dp1666
g70
I4
ssg71
g1660
sg64
(lp1667
S'True'
p1668
asbasbasbag57
(g73
g59
NtRp1669
(dp1670
g62
(dp1671
sg71
g834
sg64
(lp1672
g57
(g78
g59
NtRp1673
(dp1674
g62
(dp1675
g82
g83
ssg71
g1669
sg64
(lp1676
S'wsgi_run_once'
p1677
asbag57
(g78
g59
NtRp1678
(dp1679
g62
(dp1680
g89
g90
ssg71
g1669
sg64
(lp1681
S':'
asbag57
(g78
g59
NtRp1682
(dp1683
g62
(dp1684
sg71
g1669
sg64
(lp1685
g57
(g58
g59
NtRp1686
(dp1687
g62
(dp1688
g70
I4
ssg71
g1682
sg64
(lp1689
g100
asbasbasbag57
(g73
g59
NtRp1690
(dp1691
g62
(dp1692
sg71
g834
sg64
(lp1693
g57
(g78
g59
NtRp1694
(dp1695
g62
(dp1696
g82
g83
ssg71
g1690
sg64
(lp1697
S'wsgi_url_scheme'
p1698
asbag57
(g78
g59
NtRp1699
(dp1700
g62
(dp1701
g89
g90
ssg71
g1690
sg64
(lp1702
S':'
asbag57
(g78
g59
NtRp1703
(dp1704
g62
(dp1705
sg71
g1690
sg64
(lp1706
g57
(g58
g59
NtRp1707
(dp1708
g62
(dp1709
g70
I4
ssg71
g1703
sg64
(lp1710
S'http'
p1711
asbasbasbag57
(g73
g59
NtRp1712
(dp1713
g62
(dp1714
sg71
g834
sg64
(lp1715
g57
(g78
g59
NtRp1716
(dp1717
g62
(dp1718
g82
g83
ssg71
g1712
sg64
(lp1719
S'wsgi_version'
p1720
asbag57
(g78
g59
NtRp1721
(dp1722
g62
(dp1723
g89
g90
ssg71
g1712
sg64
(lp1724
S':'
asbag57
(g78
g59
NtRp1725
(dp1726
g62
(dp1727
sg71
g1712
sg64
(lp1728
g57
(g58
g59
NtRp1729
(dp1730
g62
(dp1731
g70
I4
ssg71
g1725
sg64
(lp1732
g57
(g66
g59
NtRp1733
(dp1734
g62
(dp1735
g70
I3
ssg71
Nsg64
(lp1736
g57
(g73
g59
NtRp1737
(dp1738
g62
(dp1739
sg71
g1733
sg64
(lp1740
g57
(g78
g59
NtRp1741
(dp1742
g62
(dp1743
sg71
g1737
sg64
(lp1744
g57
(g58
g59
NtRp1745
(dp1746
g62
(dp1747
g70
I3
ssg71
g1741
sg64
(lp1748
S'1'
asbasbasbag57
(g73
g59
NtRp1749
(dp1750
g62
(dp1751
sg71
g1733
sg64
(lp1752
g57
(g78
g59
NtRp1753
(dp1754
g62
(dp1755
sg71
g1749
sg64
(lp1756
g57
(g58
g59
NtRp1757
(dp1758
g62
(dp1759
g70
I3
ssg71
g1753
sg64
(lp1760
S'0'
asbasbasbasbasbasbasbasbasbasbasbag57
(g73
g59
NtRp1761
(dp1762
g62
(dp1763
sg71
g67
sg64
(lp1764
g57
(g78
g59
NtRp1765
(dp1766
g62
(dp1767
g82
g83
ssg71
g1761
sg64
(lp1768
S'extension'
p1769
asbag57
(g78
g59
NtRp1770
(dp1771
g62
(dp1772
g89
g90
ssg71
g1761
sg64
(lp1773
S':'
asbag57
(g78
g59
NtRp1774
(dp1775
g62
(dp1776
sg71
g1761
sg64
(lp1777
g57
(g58
g59
NtRp1778
(dp1779
g62
(dp1780
g70
I5
ssg71
g1774
sg64
(lp1781
S'html'
p1782
asbasbasbag57
(g73
g59
NtRp1783
(dp1784
g62
(dp1785
sg71
g67
sg64
(lp1786
g57
(g78
g59
NtRp1787
(dp1788
g62
(dp1789
g82
g83
ssg71
g1783
sg64
(lp1790
S'folder'
p1791
asbag57
(g78
g59
NtRp1792
(dp1793
g62
(dp1794
g89
g90
ssg71
g1783
sg64
(lp1795
S':'
asbag57
(g78
g59
NtRp1796
(dp1797
g62
(dp1798
sg71
g1783
sg64
(lp1799
g57
(g58
g59
NtRp1800
(dp1801
g62
(dp1802
g70
I5
ssg71
g1796
sg64
(lp1803
S'/home/anu/Desktop/M12/ssad m12/web2py/applications/PhotoUpload/'
p1804
asbasbasbag57
(g73
g59
NtRp1805
(dp1806
g62
(dp1807
sg71
g67
sg64
(lp1808
g57
(g78
g59
NtRp1809
(dp1810
g62
(dp1811
g82
g83
ssg71
g1805
sg64
(lp1812
S'function'
p1813
asbag57
(g78
g59
NtRp1814
(dp1815
g62
(dp1816
g89
g90
ssg71
g1805
sg64
(lp1817
S':'
asbag57
(g78
g59
NtRp1818
(dp1819
g62
(dp1820
sg71
g1805
sg64
(lp1821
g57
(g58
g59
NtRp1822
(dp1823
g62
(dp1824
g70
I5
ssg71
g1818
sg64
(lp1825
S'picture'
p1826
asbasbasbag57
(g73
g59
NtRp1827
(dp1828
g62
(dp1829
sg71
g67
sg64
(lp1830
g57
(g78
g59
NtRp1831
(dp1832
g62
(dp1833
g82
g83
ssg71
g1827
sg64
(lp1834
S'get_vars'
p1835
asbag57
(g78
g59
NtRp1836
(dp1837
g62
(dp1838
g89
g90
ssg71
g1827
sg64
(lp1839
S':'
asbag57
(g78
g59
NtRp1840
(dp1841
g62
(dp1842
sg71
g1827
sg64
(lp1843
g57
(g58
g59
NtRp1844
(dp1845
g62
(dp1846
g70
I5
ssg71
g1840
sg64
(lp1847
g57
(g66
g59
NtRp1848
(dp1849
g62
(dp1850
g70
I4
ssg71
Nsg64
(lp1851
sbasbasbasbag57
(g73
g59
NtRp1852
(dp1853
g62
(dp1854
sg71
g67
sg64
(lp1855
g57
(g78
g59
NtRp1856
(dp1857
g62
(dp1858
g82
g83
ssg71
g1852
sg64
(lp1859
S'global_settings'
p1860
asbag57
(g78
g59
NtRp1861
(dp1862
g62
(dp1863
g89
g90
ssg71
g1852
sg64
(lp1864
S':'
asbag57
(g78
g59
NtRp1865
(dp1866
g62
(dp1867
sg71
g1852
sg64
(lp1868
g57
(g58
g59
NtRp1869
(dp1870
g62
(dp1871
g70
I5
ssg71
g1865
sg64
(lp1872
g57
(g66
g59
NtRp1873
(dp1874
g62
(dp1875
g70
I4
ssg71
Nsg64
(lp1876
g57
(g73
g59
NtRp1877
(dp1878
g62
(dp1879
sg71
g1873
sg64
(lp1880
g57
(g78
g59
NtRp1881
(dp1882
g62
(dp1883
g82
g83
ssg71
g1877
sg64
(lp1884
g846
asbag57
(g78
g59
NtRp1885
(dp1886
g62
(dp1887
g89
g90
ssg71
g1877
sg64
(lp1888
S':'
asbag57
(g78
g59
NtRp1889
(dp1890
g62
(dp1891
sg71
g1877
sg64
(lp1892
g57
(g58
g59
NtRp1893
(dp1894
g62
(dp1895
g70
I4
ssg71
g1889
sg64
(lp1896
S"set(['/home/anu/Desktop/M12/ssad m12/web2py/applications/PhotoUpload/', '/home/anu/Desktop/M12/ssad m12/web2py/applications/welcome/', '/home/anu/Desktop/M12/ssad m12/web2py/applications/admin/'])"
p1897
asbasbasbag57
(g73
g59
NtRp1898
(dp1899
g62
(dp1900
sg71
g1873
sg64
(lp1901
g57
(g78
g59
NtRp1902
(dp1903
g62
(dp1904
g82
g83
ssg71
g1898
sg64
(lp1905
g868
asbag57
(g78
g59
NtRp1906
(dp1907
g62
(dp1908
g89
g90
ssg71
g1898
sg64
(lp1909
S':'
asbag57
(g78
g59
NtRp1910
(dp1911
g62
(dp1912
sg71
g1898
sg64
(lp1913
g57
(g58
g59
NtRp1914
(dp1915
g62
(dp1916
g70
I4
ssg71
g1910
sg64
(lp1917
g881
asbasbasbag57
(g73
g59
NtRp1918
(dp1919
g62
(dp1920
sg71
g1873
sg64
(lp1921
g57
(g78
g59
NtRp1922
(dp1923
g62
(dp1924
g82
g83
ssg71
g1918
sg64
(lp1925
g890
asbag57
(g78
g59
NtRp1926
(dp1927
g62
(dp1928
g89
g90
ssg71
g1918
sg64
(lp1929
S':'
asbag57
(g78
g59
NtRp1930
(dp1931
g62
(dp1932
sg71
g1918
sg64
(lp1933
g57
(g58
g59
NtRp1934
(dp1935
g62
(dp1936
g70
I4
ssg71
g1930
sg64
(lp1937
g57
(g66
g59
NtRp1938
(dp1939
g62
(dp1940
g70
I3
ssg71
Nsg64
(lp1941
sbasbasbasbag57
(g73
g59
NtRp1942
(dp1943
g62
(dp1944
sg71
g1873
sg64
(lp1945
g57
(g78
g59
NtRp1946
(dp1947
g62
(dp1948
g82
g83
ssg71
g1942
sg64
(lp1949
g915
asbag57
(g78
g59
NtRp1950
(dp1951
g62
(dp1952
g89
g90
ssg71
g1942
sg64
(lp1953
S':'
asbag57
(g78
g59
NtRp1954
(dp1955
g62
(dp1956
sg71
g1942
sg64
(lp1957
g57
(g58
g59
NtRp1958
(dp1959
g62
(dp1960
g70
I4
ssg71
g1954
sg64
(lp1961
S"<Values at 0xa53186c: {'verbose': False, 'ip': '127.0.0.1', 'shutdown_timeout': 5, 'taskbar': False, 'nocron': False, 'pid_filename': 'httpserver.pid', 'maxthreads': None, 'softcron': False, 'server_name': 'COMPAQ', 'bpython': False, 'nogui': False, 'port': 8000, 'extcron': False, 'debuglevel': 30, 'test': None, 'folder': '/home/anu/Desktop/M12/ssad m12/web2py', 'config': '', 'import_models': False, 'winservice': '', 'shell': None, 'run': '', 'log_filename': 'httpserver.log', 'args': [''], 'socket_timeout': 5, 'ssl_ca_certificate': None, 'scheduler': None, 'profiler_filename': None, 'ssl_private_key': '', 'password': 'anu', 'request_queue_size': 5, 'ssl_certificate': '', 'cronjob': False, 'numthreads': None, 'quiet': False, 'interfaces': None, 'minthreads': None, 'timeout': 10, 'plain': False, 'nobanner': False}>"
p1962
asbasbasbag57
(g73
g59
NtRp1963
(dp1964
g62
(dp1965
sg71
g1873
sg64
(lp1966
g57
(g78
g59
NtRp1967
(dp1968
g62
(dp1969
g82
g83
ssg71
g1963
sg64
(lp1970
g937
asbag57
(g78
g59
NtRp1971
(dp1972
g62
(dp1973
g89
g90
ssg71
g1963
sg64
(lp1974
S':'
asbag57
(g78
g59
NtRp1975
(dp1976
g62
(dp1977
sg71
g1963
sg64
(lp1978
g57
(g58
g59
NtRp1979
(dp1980
g62
(dp1981
g70
I4
ssg71
g1975
sg64
(lp1982
S'set([])'
p1983
asbasbasbag57
(g73
g59
NtRp1984
(dp1985
g62
(dp1986
sg71
g1873
sg64
(lp1987
g57
(g78
g59
NtRp1988
(dp1989
g62
(dp1990
g82
g83
ssg71
g1984
sg64
(lp1991
g959
asbag57
(g78
g59
NtRp1992
(dp1993
g62
(dp1994
g89
g90
ssg71
g1984
sg64
(lp1995
S':'
asbag57
(g78
g59
NtRp1996
(dp1997
g62
(dp1998
sg71
g1984
sg64
(lp1999
g57
(g58
g59
NtRp2000
(dp2001
g62
(dp2002
g70
I4
ssg71
g1996
sg64
(lp2003
g100
asbasbasbag57
(g73
g59
NtRp2004
(dp2005
g62
(dp2006
sg71
g1873
sg64
(lp2007
g57
(g78
g59
NtRp2008
(dp2009
g62
(dp2010
g82
g83
ssg71
g2004
sg64
(lp2011
g980
asbag57
(g78
g59
NtRp2012
(dp2013
g62
(dp2014
g89
g90
ssg71
g2004
sg64
(lp2015
S':'
asbag57
(g78
g59
NtRp2016
(dp2017
g62
(dp2018
sg71
g2004
sg64
(lp2019
g57
(g58
g59
NtRp2020
(dp2021
g62
(dp2022
g70
I4
ssg71
g2016
sg64
(lp2023
g993
asbasbasbag57
(g73
g59
NtRp2024
(dp2025
g62
(dp2026
sg71
g1873
sg64
(lp2027
g57
(g78
g59
NtRp2028
(dp2029
g62
(dp2030
g82
g83
ssg71
g2024
sg64
(lp2031
g1178
asbag57
(g78
g59
NtRp2032
(dp2033
g62
(dp2034
g89
g90
ssg71
g2024
sg64
(lp2035
S':'
asbag57
(g78
g59
NtRp2036
(dp2037
g62
(dp2038
sg71
g2024
sg64
(lp2039
g57
(g58
g59
NtRp2040
(dp2041
g62
(dp2042
g70
I4
ssg71
g2036
sg64
(lp2043
g100
asbasbasbag57
(g73
g59
NtRp2044
(dp2045
g62
(dp2046
sg71
g1873
sg64
(lp2047
g57
(g78
g59
NtRp2048
(dp2049
g62
(dp2050
g82
g83
ssg71
g2044
sg64
(lp2051
g1199
asbag57
(g78
g59
NtRp2052
(dp2053
g62
(dp2054
g89
g90
ssg71
g2044
sg64
(lp2055
S':'
asbag57
(g78
g59
NtRp2056
(dp2057
g62
(dp2058
sg71
g2044
sg64
(lp2059
g57
(g58
g59
NtRp2060
(dp2061
g62
(dp2062
g70
I4
ssg71
g2056
sg64
(lp2063
g100
asbasbasbag57
(g73
g59
NtRp2064
(dp2065
g62
(dp2066
sg71
g1873
sg64
(lp2067
g57
(g78
g59
NtRp2068
(dp2069
g62
(dp2070
g82
g83
ssg71
g2064
sg64
(lp2071
g1437
asbag57
(g78
g59
NtRp2072
(dp2073
g62
(dp2074
g89
g90
ssg71
g2064
sg64
(lp2075
S':'
asbag57
(g78
g59
NtRp2076
(dp2077
g62
(dp2078
sg71
g2064
sg64
(lp2079
g57
(g58
g59
NtRp2080
(dp2081
g62
(dp2082
g70
I4
ssg71
g2076
sg64
(lp2083
g1450
asbasbasbag57
(g73
g59
NtRp2084
(dp2085
g62
(dp2086
sg71
g1873
sg64
(lp2087
g57
(g78
g59
NtRp2088
(dp2089
g62
(dp2090
g82
g83
ssg71
g2084
sg64
(lp2091
g1480
asbag57
(g78
g59
NtRp2092
(dp2093
g62
(dp2094
g89
g90
ssg71
g2084
sg64
(lp2095
S':'
asbag57
(g78
g59
NtRp2096
(dp2097
g62
(dp2098
sg71
g2084
sg64
(lp2099
g57
(g58
g59
NtRp2100
(dp2101
g62
(dp2102
g70
I4
ssg71
g2096
sg64
(lp2103
g57
(g66
g59
NtRp2104
(dp2105
g62
(dp2106
g70
I3
ssg71
Nsg64
(lp2107
g57
(g73
g59
NtRp2108
(dp2109
g62
(dp2110
sg71
g2104
sg64
(lp2111
g57
(g78
g59
NtRp2112
(dp2113
g62
(dp2114
sg71
g2108
sg64
(lp2115
g57
(g58
g59
NtRp2116
(dp2117
g62
(dp2118
g70
I3
ssg71
g2112
sg64
(lp2119
S'1'
asbasbasbag57
(g73
g59
NtRp2120
(dp2121
g62
(dp2122
sg71
g2104
sg64
(lp2123
g57
(g78
g59
NtRp2124
(dp2125
g62
(dp2126
sg71
g2120
sg64
(lp2127
g57
(g58
g59
NtRp2128
(dp2129
g62
(dp2130
g70
I3
ssg71
g2124
sg64
(lp2131
S'99'
p2132
asbasbasbag57
(g73
g59
NtRp2133
(dp2134
g62
(dp2135
sg71
g2104
sg64
(lp2136
g57
(g78
g59
NtRp2137
(dp2138
g62
(dp2139
sg71
g2133
sg64
(lp2140
g57
(g58
g59
NtRp2141
(dp2142
g62
(dp2143
g70
I3
ssg71
g2137
sg64
(lp2144
S'7'
asbasbasbag57
(g73
g59
NtRp2145
(dp2146
g62
(dp2147
sg71
g2104
sg64
(lp2148
g57
(g78
g59
NtRp2149
(dp2150
g62
(dp2151
sg71
g2145
sg64
(lp2152
g57
(g58
g59
NtRp2153
(dp2154
g62
(dp2155
g70
I3
ssg71
g2149
sg64
(lp2156
S'datetime.datetime(2012, 3, 4, 22, 12, 8)'
p2157
asbasbasbag57
(g73
g59
NtRp2158
(dp2159
g62
(dp2160
sg71
g2104
sg64
(lp2161
g57
(g78
g59
NtRp2162
(dp2163
g62
(dp2164
sg71
g2158
sg64
(lp2165
g57
(g58
g59
NtRp2166
(dp2167
g62
(dp2168
g70
I3
ssg71
g2162
sg64
(lp2169
g1559
asbasbasbasbasbasbasbasbasbasbasbag57
(g73
g59
NtRp2170
(dp2171
g62
(dp2172
sg71
g67
sg64
(lp2173
g57
(g78
g59
NtRp2174
(dp2175
g62
(dp2176
g82
g83
ssg71
g2170
sg64
(lp2177
S'is_https'
p2178
asbag57
(g78
g59
NtRp2179
(dp2180
g62
(dp2181
g89
g90
ssg71
g2170
sg64
(lp2182
S':'
asbag57
(g78
g59
NtRp2183
(dp2184
g62
(dp2185
sg71
g2170
sg64
(lp2186
g57
(g58
g59
NtRp2187
(dp2188
g62
(dp2189
g70
I5
ssg71
g2183
sg64
(lp2190
g100
asbasbasbag57
(g73
g59
NtRp2191
(dp2192
g62
(dp2193
sg71
g67
sg64
(lp2194
g57
(g78
g59
NtRp2195
(dp2196
g62
(dp2197
g82
g83
ssg71
g2191
sg64
(lp2198
S'is_local'
p2199
asbag57
(g78
g59
NtRp2200
(dp2201
g62
(dp2202
g89
g90
ssg71
g2191
sg64
(lp2203
S':'
asbag57
(g78
g59
NtRp2204
(dp2205
g62
(dp2206
sg71
g2191
sg64
(lp2207
g57
(g58
g59
NtRp2208
(dp2209
g62
(dp2210
g70
I5
ssg71
g2204
sg64
(lp2211
g1668
asbasbasbag57
(g73
g59
NtRp2212
(dp2213
g62
(dp2214
sg71
g67
sg64
(lp2215
g57
(g78
g59
NtRp2216
(dp2217
g62
(dp2218
g82
g83
ssg71
g2212
sg64
(lp2219
S'is_restful'
p2220
asbag57
(g78
g59
NtRp2221
(dp2222
g62
(dp2223
g89
g90
ssg71
g2212
sg64
(lp2224
S':'
asbag57
(g78
g59
NtRp2225
(dp2226
g62
(dp2227
sg71
g2212
sg64
(lp2228
g57
(g58
g59
NtRp2229
(dp2230
g62
(dp2231
g70
I5
ssg71
g2225
sg64
(lp2232
g100
asbasbasbag57
(g73
g59
NtRp2233
(dp2234
g62
(dp2235
sg71
g67
sg64
(lp2236
g57
(g78
g59
NtRp2237
(dp2238
g62
(dp2239
g82
g83
ssg71
g2233
sg64
(lp2240
S'now'
p2241
asbag57
(g78
g59
NtRp2242
(dp2243
g62
(dp2244
g89
g90
ssg71
g2233
sg64
(lp2245
S':'
asbag57
(g78
g59
NtRp2246
(dp2247
g62
(dp2248
sg71
g2233
sg64
(lp2249
g57
(g58
g59
NtRp2250
(dp2251
g62
(dp2252
g70
I5
ssg71
g2246
sg64
(lp2253
S'datetime.datetime(2012, 8, 30, 21, 36, 14, 910899)'
p2254
asbasbasbag57
(g73
g59
NtRp2255
(dp2256
g62
(dp2257
sg71
g67
sg64
(lp2258
g57
(g78
g59
NtRp2259
(dp2260
g62
(dp2261
g82
g83
ssg71
g2255
sg64
(lp2262
S'post_vars'
p2263
asbag57
(g78
g59
NtRp2264
(dp2265
g62
(dp2266
g89
g90
ssg71
g2255
sg64
(lp2267
S':'
asbag57
(g78
g59
NtRp2268
(dp2269
g62
(dp2270
sg71
g2255
sg64
(lp2271
g57
(g58
g59
NtRp2272
(dp2273
g62
(dp2274
g70
I5
ssg71
g2268
sg64
(lp2275
g57
(g66
g59
NtRp2276
(dp2277
g62
(dp2278
g70
I4
ssg71
Nsg64
(lp2279
sbasbasbasbag57
(g73
g59
NtRp2280
(dp2281
g62
(dp2282
sg71
g67
sg64
(lp2283
g57
(g78
g59
NtRp2284
(dp2285
g62
(dp2286
g82
g83
ssg71
g2280
sg64
(lp2287
S'raw_args'
p2288
asbag57
(g78
g59
NtRp2289
(dp2290
g62
(dp2291
g89
g90
ssg71
g2280
sg64
(lp2292
S':'
asbag57
(g78
g59
NtRp2293
(dp2294
g62
(dp2295
sg71
g2280
sg64
(lp2296
g57
(g58
g59
NtRp2297
(dp2298
g62
(dp2299
g70
I5
ssg71
g2293
sg64
(lp2300
S'4'
asbasbasbag57
(g73
g59
NtRp2301
(dp2302
g62
(dp2303
sg71
g67
sg64
(lp2304
g57
(g78
g59
NtRp2305
(dp2306
g62
(dp2307
g82
g83
ssg71
g2301
sg64
(lp2308
S'url'
p2309
asbag57
(g78
g59
NtRp2310
(dp2311
g62
(dp2312
g89
g90
ssg71
g2301
sg64
(lp2313
S':'
asbag57
(g78
g59
NtRp2314
(dp2315
g62
(dp2316
sg71
g2301
sg64
(lp2317
g57
(g58
g59
NtRp2318
(dp2319
g62
(dp2320
g70
I5
ssg71
g2314
sg64
(lp2321
S'/PhotoUpload/default/picture/4'
p2322
asbasbasbag57
(g73
g59
NtRp2323
(dp2324
g62
(dp2325
sg71
g67
sg64
(lp2326
g57
(g78
g59
NtRp2327
(dp2328
g62
(dp2329
g82
g83
ssg71
g2323
sg64
(lp2330
S'utcnow'
p2331
asbag57
(g78
g59
NtRp2332
(dp2333
g62
(dp2334
g89
g90
ssg71
g2323
sg64
(lp2335
S':'
asbag57
(g78
g59
NtRp2336
(dp2337
g62
(dp2338
sg71
g2323
sg64
(lp2339
g57
(g58
g59
NtRp2340
(dp2341
g62
(dp2342
g70
I5
ssg71
g2336
sg64
(lp2343
S'datetime.datetime(2012, 8, 30, 16, 6, 14, 910989)'
p2344
asbasbasbag57
(g73
g59
NtRp2345
(dp2346
g62
(dp2347
sg71
g67
sg64
(lp2348
g57
(g78
g59
NtRp2349
(dp2350
g62
(dp2351
g82
g83
ssg71
g2345
sg64
(lp2352
S'uuid'
p2353
asbag57
(g78
g59
NtRp2354
(dp2355
g62
(dp2356
g89
g90
ssg71
g2345
sg64
(lp2357
S':'
asbag57
(g78
g59
NtRp2358
(dp2359
g62
(dp2360
sg71
g2345
sg64
(lp2361
g57
(g58
g59
NtRp2362
(dp2363
g62
(dp2364
g70
I5
ssg71
g2358
sg64
(lp2365
S'PhotoUpload/127.0.0.1.2012-08-30.21-36-14.758ec6b5-f139-4796-8f9e-513f19bb909e'
p2366
asbasbasbag57
(g73
g59
NtRp2367
(dp2368
g62
(dp2369
sg71
g67
sg64
(lp2370
g57
(g78
g59
NtRp2371
(dp2372
g62
(dp2373
g82
g83
ssg71
g2367
sg64
(lp2374
S'vars'
p2375
asbag57
(g78
g59
NtRp2376
(dp2377
g62
(dp2378
g89
g90
ssg71
g2367
sg64
(lp2379
S':'
asbag57
(g78
g59
NtRp2380
(dp2381
g62
(dp2382
sg71
g2367
sg64
(lp2383
g57
(g58
g59
NtRp2384
(dp2385
g62
(dp2386
g70
I5
ssg71
g2380
sg64
(lp2387
g57
(g66
g59
NtRp2388
(dp2389
g62
(dp2390
g70
I4
ssg71
Nsg64
(lp2391
sbasbasbasbag57
(g73
g59
NtRp2392
(dp2393
g62
(dp2394
sg71
g67
sg64
(lp2395
g57
(g78
g59
NtRp2396
(dp2397
g62
(dp2398
g82
g83
ssg71
g2392
sg64
(lp2399
S'wsgi'
p2400
asbag57
(g78
g59
NtRp2401
(dp2402
g62
(dp2403
g89
g90
ssg71
g2392
sg64
(lp2404
S':'
asbag57
(g78
g59
NtRp2405
(dp2406
g62
(dp2407
sg71
g2392
sg64
(lp2408
g57
(g58
g59
NtRp2409
(dp2410
g62
(dp2411
g70
I5
ssg71
g2405
sg64
(lp2412
g57
(g66
g59
NtRp2413
(dp2414
g62
(dp2415
g70
I4
ssg71
Nsg64
(lp2416
g57
(g73
g59
NtRp2417
(dp2418
g62
(dp2419
sg71
g2413
sg64
(lp2420
g57
(g78
g59
NtRp2421
(dp2422
g62
(dp2423
g82
g83
ssg71
g2417
sg64
(lp2424
S'environ'
p2425
asbag57
(g78
g59
NtRp2426
(dp2427
g62
(dp2428
g89
g90
ssg71
g2417
sg64
(lp2429
S':'
asbag57
(g78
g59
NtRp2430
(dp2431
g62
(dp2432
sg71
g2417
sg64
(lp2433
g57
(g58
g59
NtRp2434
(dp2435
g62
(dp2436
g70
I4
ssg71
g2430
sg64
(lp2437
g57
(g66
g59
NtRp2438
(dp2439
g62
(dp2440
g70
I3
ssg71
Nsg64
(lp2441
g57
(g73
g59
NtRp2442
(dp2443
g62
(dp2444
sg71
g2438
sg64
(lp2445
g57
(g78
g59
NtRp2446
(dp2447
g62
(dp2448
g82
g83
ssg71
g2442
sg64
(lp2449
S'HTTP_ACCEPT'
p2450
asbag57
(g78
g59
NtRp2451
(dp2452
g62
(dp2453
g89
g90
ssg71
g2442
sg64
(lp2454
S':'
asbag57
(g78
g59
NtRp2455
(dp2456
g62
(dp2457
sg71
g2442
sg64
(lp2458
g57
(g58
g59
NtRp2459
(dp2460
g62
(dp2461
g70
I3
ssg71
g2455
sg64
(lp2462
g1015
asbasbasbag57
(g73
g59
NtRp2463
(dp2464
g62
(dp2465
sg71
g2438
sg64
(lp2466
g57
(g78
g59
NtRp2467
(dp2468
g62
(dp2469
g82
g83
ssg71
g2463
sg64
(lp2470
S'HTTP_ACCEPT_ENCODING'
p2471
asbag57
(g78
g59
NtRp2472
(dp2473
g62
(dp2474
g89
g90
ssg71
g2463
sg64
(lp2475
S':'
asbag57
(g78
g59
NtRp2476
(dp2477
g62
(dp2478
sg71
g2463
sg64
(lp2479
g57
(g58
g59
NtRp2480
(dp2481
g62
(dp2482
g70
I3
ssg71
g2476
sg64
(lp2483
g1037
asbasbasbag57
(g73
g59
NtRp2484
(dp2485
g62
(dp2486
sg71
g2438
sg64
(lp2487
g57
(g78
g59
NtRp2488
(dp2489
g62
(dp2490
g82
g83
ssg71
g2484
sg64
(lp2491
S'HTTP_ACCEPT_LANGUAGE'
p2492
asbag57
(g78
g59
NtRp2493
(dp2494
g62
(dp2495
g89
g90
ssg71
g2484
sg64
(lp2496
S':'
asbag57
(g78
g59
NtRp2497
(dp2498
g62
(dp2499
sg71
g2484
sg64
(lp2500
g57
(g58
g59
NtRp2501
(dp2502
g62
(dp2503
g70
I3
ssg71
g2497
sg64
(lp2504
g1059
asbasbasbag57
(g73
g59
NtRp2505
(dp2506
g62
(dp2507
sg71
g2438
sg64
(lp2508
g57
(g78
g59
NtRp2509
(dp2510
g62
(dp2511
g82
g83
ssg71
g2505
sg64
(lp2512
S'HTTP_CONNECTION'
p2513
asbag57
(g78
g59
NtRp2514
(dp2515
g62
(dp2516
g89
g90
ssg71
g2505
sg64
(lp2517
S':'
asbag57
(g78
g59
NtRp2518
(dp2519
g62
(dp2520
sg71
g2505
sg64
(lp2521
g57
(g58
g59
NtRp2522
(dp2523
g62
(dp2524
g70
I3
ssg71
g2518
sg64
(lp2525
g1081
asbasbasbag57
(g73
g59
NtRp2526
(dp2527
g62
(dp2528
sg71
g2438
sg64
(lp2529
g57
(g78
g59
NtRp2530
(dp2531
g62
(dp2532
g82
g83
ssg71
g2526
sg64
(lp2533
S'HTTP_COOKIE'
p2534
asbag57
(g78
g59
NtRp2535
(dp2536
g62
(dp2537
g89
g90
ssg71
g2526
sg64
(lp2538
S':'
asbag57
(g78
g59
NtRp2539
(dp2540
g62
(dp2541
sg71
g2526
sg64
(lp2542
g57
(g58
g59
NtRp2543
(dp2544
g62
(dp2545
g70
I3
ssg71
g2539
sg64
(lp2546
g1103
asbasbasbag57
(g73
g59
NtRp2547
(dp2548
g62
(dp2549
sg71
g2438
sg64
(lp2550
g57
(g78
g59
NtRp2551
(dp2552
g62
(dp2553
g82
g83
ssg71
g2547
sg64
(lp2554
S'HTTP_HOST'
p2555
asbag57
(g78
g59
NtRp2556
(dp2557
g62
(dp2558
g89
g90
ssg71
g2547
sg64
(lp2559
S':'
asbag57
(g78
g59
NtRp2560
(dp2561
g62
(dp2562
sg71
g2547
sg64
(lp2563
g57
(g58
g59
NtRp2564
(dp2565
g62
(dp2566
g70
I3
ssg71
g2560
sg64
(lp2567
g1125
asbasbasbag57
(g73
g59
NtRp2568
(dp2569
g62
(dp2570
sg71
g2438
sg64
(lp2571
g57
(g78
g59
NtRp2572
(dp2573
g62
(dp2574
g82
g83
ssg71
g2568
sg64
(lp2575
S'HTTP_REFERER'
p2576
asbag57
(g78
g59
NtRp2577
(dp2578
g62
(dp2579
g89
g90
ssg71
g2568
sg64
(lp2580
S':'
asbag57
(g78
g59
NtRp2581
(dp2582
g62
(dp2583
sg71
g2568
sg64
(lp2584
g57
(g58
g59
NtRp2585
(dp2586
g62
(dp2587
g70
I3
ssg71
g2581
sg64
(lp2588
g1147
asbasbasbag57
(g73
g59
NtRp2589
(dp2590
g62
(dp2591
sg71
g2438
sg64
(lp2592
g57
(g78
g59
NtRp2593
(dp2594
g62
(dp2595
g82
g83
ssg71
g2589
sg64
(lp2596
S'HTTP_USER_AGENT'
p2597
asbag57
(g78
g59
NtRp2598
(dp2599
g62
(dp2600
g89
g90
ssg71
g2589
sg64
(lp2601
S':'
asbag57
(g78
g59
NtRp2602
(dp2603
g62
(dp2604
sg71
g2589
sg64
(lp2605
g57
(g58
g59
NtRp2606
(dp2607
g62
(dp2608
g70
I3
ssg71
g2602
sg64
(lp2609
g1169
asbasbasbag57
(g73
g59
NtRp2610
(dp2611
g62
(dp2612
sg71
g2438
sg64
(lp2613
g57
(g78
g59
NtRp2614
(dp2615
g62
(dp2616
g82
g83
ssg71
g2610
sg64
(lp2617
S'PATH_INFO'
p2618
asbag57
(g78
g59
NtRp2619
(dp2620
g62
(dp2621
g89
g90
ssg71
g2610
sg64
(lp2622
S':'
asbag57
(g78
g59
NtRp2623
(dp2624
g62
(dp2625
sg71
g2610
sg64
(lp2626
g57
(g58
g59
NtRp2627
(dp2628
g62
(dp2629
g70
I3
ssg71
g2623
sg64
(lp2630
g1233
asbasbasbag57
(g73
g59
NtRp2631
(dp2632
g62
(dp2633
sg71
g2438
sg64
(lp2634
g57
(g78
g59
NtRp2635
(dp2636
g62
(dp2637
g82
g83
ssg71
g2631
sg64
(lp2638
S'QUERY_STRING'
p2639
asbag57
(g78
g59
NtRp2640
(dp2641
g62
(dp2642
g89
g90
ssg71
g2631
sg64
(lp2643
S':'
asbag57
(g78
g59
NtRp2644
(dp2645
g62
(dp2646
sg71
g2631
sg64
(lp2647
g57
(g58
g59
NtRp2648
(dp2649
g62
(dp2650
g70
I3
ssg71
g2644
sg64
(lp2651
S''
asbasbasbag57
(g73
g59
NtRp2652
(dp2653
g62
(dp2654
sg71
g2438
sg64
(lp2655
g57
(g78
g59
NtRp2656
(dp2657
g62
(dp2658
g82
g83
ssg71
g2652
sg64
(lp2659
S'REMOTE_ADDR'
p2660
asbag57
(g78
g59
NtRp2661
(dp2662
g62
(dp2663
g89
g90
ssg71
g2652
sg64
(lp2664
S':'
asbag57
(g78
g59
NtRp2665
(dp2666
g62
(dp2667
sg71
g2652
sg64
(lp2668
g57
(g58
g59
NtRp2669
(dp2670
g62
(dp2671
g70
I3
ssg71
g2665
sg64
(lp2672
g202
asbasbasbag57
(g73
g59
NtRp2673
(dp2674
g62
(dp2675
sg71
g2438
sg64
(lp2676
g57
(g78
g59
NtRp2677
(dp2678
g62
(dp2679
g82
g83
ssg71
g2673
sg64
(lp2680
S'REMOTE_PORT'
p2681
asbag57
(g78
g59
NtRp2682
(dp2683
g62
(dp2684
g89
g90
ssg71
g2673
sg64
(lp2685
S':'
asbag57
(g78
g59
NtRp2686
(dp2687
g62
(dp2688
sg71
g2673
sg64
(lp2689
g57
(g58
g59
NtRp2690
(dp2691
g62
(dp2692
g70
I3
ssg71
g2686
sg64
(lp2693
g1297
asbasbasbag57
(g73
g59
NtRp2694
(dp2695
g62
(dp2696
sg71
g2438
sg64
(lp2697
g57
(g78
g59
NtRp2698
(dp2699
g62
(dp2700
g82
g83
ssg71
g2694
sg64
(lp2701
S'REQUEST_METHOD'
p2702
asbag57
(g78
g59
NtRp2703
(dp2704
g62
(dp2705
g89
g90
ssg71
g2694
sg64
(lp2706
S':'
asbag57
(g78
g59
NtRp2707
(dp2708
g62
(dp2709
sg71
g2694
sg64
(lp2710
g57
(g58
g59
NtRp2711
(dp2712
g62
(dp2713
g70
I3
ssg71
g2707
sg64
(lp2714
g1319
asbasbasbag57
(g73
g59
NtRp2715
(dp2716
g62
(dp2717
sg71
g2438
sg64
(lp2718
g57
(g78
g59
NtRp2719
(dp2720
g62
(dp2721
g82
g83
ssg71
g2715
sg64
(lp2722
S'SCRIPT_NAME'
p2723
asbag57
(g78
g59
NtRp2724
(dp2725
g62
(dp2726
g89
g90
ssg71
g2715
sg64
(lp2727
S':'
asbag57
(g78
g59
NtRp2728
(dp2729
g62
(dp2730
sg71
g2715
sg64
(lp2731
g57
(g58
g59
NtRp2732
(dp2733
g62
(dp2734
g70
I3
ssg71
g2728
sg64
(lp2735
S''
asbasbasbag57
(g73
g59
NtRp2736
(dp2737
g62
(dp2738
sg71
g2438
sg64
(lp2739
g57
(g78
g59
NtRp2740
(dp2741
g62
(dp2742
g82
g83
ssg71
g2736
sg64
(lp2743
S'SERVER_NAME'
p2744
asbag57
(g78
g59
NtRp2745
(dp2746
g62
(dp2747
g89
g90
ssg71
g2736
sg64
(lp2748
S':'
asbag57
(g78
g59
NtRp2749
(dp2750
g62
(dp2751
sg71
g2736
sg64
(lp2752
g57
(g58
g59
NtRp2753
(dp2754
g62
(dp2755
g70
I3
ssg71
g2749
sg64
(lp2756
g1362
asbasbasbag57
(g73
g59
NtRp2757
(dp2758
g62
(dp2759
sg71
g2438
sg64
(lp2760
g57
(g78
g59
NtRp2761
(dp2762
g62
(dp2763
g82
g83
ssg71
g2757
sg64
(lp2764
S'SERVER_PORT'
p2765
asbag57
(g78
g59
NtRp2766
(dp2767
g62
(dp2768
g89
g90
ssg71
g2757
sg64
(lp2769
S':'
asbag57
(g78
g59
NtRp2770
(dp2771
g62
(dp2772
sg71
g2757
sg64
(lp2773
g57
(g58
g59
NtRp2774
(dp2775
g62
(dp2776
g70
I3
ssg71
g2770
sg64
(lp2777
g1384
asbasbasbag57
(g73
g59
NtRp2778
(dp2779
g62
(dp2780
sg71
g2438
sg64
(lp2781
g57
(g78
g59
NtRp2782
(dp2783
g62
(dp2784
g82
g83
ssg71
g2778
sg64
(lp2785
S'SERVER_PROTOCOL'
p2786
asbag57
(g78
g59
NtRp2787
(dp2788
g62
(dp2789
g89
g90
ssg71
g2778
sg64
(lp2790
S':'
asbag57
(g78
g59
NtRp2791
(dp2792
g62
(dp2793
sg71
g2778
sg64
(lp2794
g57
(g58
g59
NtRp2795
(dp2796
g62
(dp2797
g70
I3
ssg71
g2791
sg64
(lp2798
g1406
asbasbasbag57
(g73
g59
NtRp2799
(dp2800
g62
(dp2801
sg71
g2438
sg64
(lp2802
g57
(g78
g59
NtRp2803
(dp2804
g62
(dp2805
g82
g83
ssg71
g2799
sg64
(lp2806
S'SERVER_SOFTWARE'
p2807
asbag57
(g78
g59
NtRp2808
(dp2809
g62
(dp2810
g89
g90
ssg71
g2799
sg64
(lp2811
S':'
asbag57
(g78
g59
NtRp2812
(dp2813
g62
(dp2814
sg71
g2799
sg64
(lp2815
g57
(g58
g59
NtRp2816
(dp2817
g62
(dp2818
g70
I3
ssg71
g2812
sg64
(lp2819
g1428
asbasbasbag57
(g73
g59
NtRp2820
(dp2821
g62
(dp2822
sg71
g2438
sg64
(lp2823
g57
(g78
g59
NtRp2824
(dp2825
g62
(dp2826
g82
g83
ssg71
g2820
sg64
(lp2827
S'wsgi.errors'
p2828
asbag57
(g78
g59
NtRp2829
(dp2830
g62
(dp2831
g89
g90
ssg71
g2820
sg64
(lp2832
S':'
asbag57
(g78
g59
NtRp2833
(dp2834
g62
(dp2835
sg71
g2820
sg64
(lp2836
g57
(g58
g59
NtRp2837
(dp2838
g62
(dp2839
g70
I3
ssg71
g2833
sg64
(lp2840
S"<open file '<stderr>', mode 'w' at 0xb73250d0>"
p2841
asbasbasbag57
(g73
g59
NtRp2842
(dp2843
g62
(dp2844
sg71
g2438
sg64
(lp2845
g57
(g78
g59
NtRp2846
(dp2847
g62
(dp2848
g82
g83
ssg71
g2842
sg64
(lp2849
S'wsgi.file_wrapper'
p2850
asbag57
(g78
g59
NtRp2851
(dp2852
g62
(dp2853
g89
g90
ssg71
g2842
sg64
(lp2854
S':'
asbag57
(g78
g59
NtRp2855
(dp2856
g62
(dp2857
sg71
g2842
sg64
(lp2858
g57
(g58
g59
NtRp2859
(dp2860
g62
(dp2861
g70
I3
ssg71
g2855
sg64
(lp2862
S'<class wsgiref.util.FileWrapper at 0xa507e3c>'
p2863
asbasbasbag57
(g73
g59
NtRp2864
(dp2865
g62
(dp2866
sg71
g2438
sg64
(lp2867
g57
(g78
g59
NtRp2868
(dp2869
g62
(dp2870
g82
g83
ssg71
g2864
sg64
(lp2871
S'wsgi.input'
p2872
asbag57
(g78
g59
NtRp2873
(dp2874
g62
(dp2875
g89
g90
ssg71
g2864
sg64
(lp2876
S':'
asbag57
(g78
g59
NtRp2877
(dp2878
g62
(dp2879
sg71
g2864
sg64
(lp2880
g57
(g58
g59
NtRp2881
(dp2882
g62
(dp2883
g70
I3
ssg71
g2877
sg64
(lp2884
S'<cStringIO.StringO object at 0xaf590d40>'
p2885
asbasbasbag57
(g73
g59
NtRp2886
(dp2887
g62
(dp2888
sg71
g2438
sg64
(lp2889
g57
(g78
g59
NtRp2890
(dp2891
g62
(dp2892
g82
g83
ssg71
g2886
sg64
(lp2893
S'wsgi.multiprocess'
p2894
asbag57
(g78
g59
NtRp2895
(dp2896
g62
(dp2897
g89
g90
ssg71
g2886
sg64
(lp2898
S':'
asbag57
(g78
g59
NtRp2899
(dp2900
g62
(dp2901
sg71
g2886
sg64
(lp2902
g57
(g58
g59
NtRp2903
(dp2904
g62
(dp2905
g70
I3
ssg71
g2899
sg64
(lp2906
g100
asbasbasbag57
(g73
g59
NtRp2907
(dp2908
g62
(dp2909
sg71
g2438
sg64
(lp2910
g57
(g78
g59
NtRp2911
(dp2912
g62
(dp2913
g82
g83
ssg71
g2907
sg64
(lp2914
S'wsgi.multithread'
p2915
asbag57
(g78
g59
NtRp2916
(dp2917
g62
(dp2918
g89
g90
ssg71
g2907
sg64
(lp2919
S':'
asbag57
(g78
g59
NtRp2920
(dp2921
g62
(dp2922
sg71
g2907
sg64
(lp2923
g57
(g58
g59
NtRp2924
(dp2925
g62
(dp2926
g70
I3
ssg71
g2920
sg64
(lp2927
g1668
asbasbasbag57
(g73
g59
NtRp2928
(dp2929
g62
(dp2930
sg71
g2438
sg64
(lp2931
g57
(g78
g59
NtRp2932
(dp2933
g62
(dp2934
g82
g83
ssg71
g2928
sg64
(lp2935
S'wsgi.run_once'
p2936
asbag57
(g78
g59
NtRp2937
(dp2938
g62
(dp2939
g89
g90
ssg71
g2928
sg64
(lp2940
S':'
asbag57
(g78
g59
NtRp2941
(dp2942
g62
(dp2943
sg71
g2928
sg64
(lp2944
g57
(g58
g59
NtRp2945
(dp2946
g62
(dp2947
g70
I3
ssg71
g2941
sg64
(lp2948
g100
asbasbasbag57
(g73
g59
NtRp2949
(dp2950
g62
(dp2951
sg71
g2438
sg64
(lp2952
g57
(g78
g59
NtRp2953
(dp2954
g62
(dp2955
g82
g83
ssg71
g2949
sg64
(lp2956
S'wsgi.url_scheme'
p2957
asbag57
(g78
g59
NtRp2958
(dp2959
g62
(dp2960
g89
g90
ssg71
g2949
sg64
(lp2961
S':'
asbag57
(g78
g59
NtRp2962
(dp2963
g62
(dp2964
sg71
g2949
sg64
(lp2965
g57
(g58
g59
NtRp2966
(dp2967
g62
(dp2968
g70
I3
ssg71
g2962
sg64
(lp2969
g1711
asbasbasbag57
(g73
g59
NtRp2970
(dp2971
g62
(dp2972
sg71
g2438
sg64
(lp2973
g57
(g78
g59
NtRp2974
(dp2975
g62
(dp2976
g82
g83
ssg71
g2970
sg64
(lp2977
S'wsgi.version'
p2978
asbag57
(g78
g59
NtRp2979
(dp2980
g62
(dp2981
g89
g90
ssg71
g2970
sg64
(lp2982
S':'
asbag57
(g78
g59
NtRp2983
(dp2984
g62
(dp2985
sg71
g2970
sg64
(lp2986
g57
(g58
g59
NtRp2987
(dp2988
g62
(dp2989
g70
I3
ssg71
g2983
sg64
(lp2990
S'1'
asbasbasbasbasbasbasbasbasbasbasbasbasbsS'frames'
p2991
(lp2992
(dp2993
S'file'
p2994
S'/home/anu/Desktop/M12/ssad m12/web2py/gluon/restricted.py'
p2995
sS'dump'
p2996
(dp2997
S'environment'
p2998
S"{'A': <class 'gluon.html.A'>, 'Auth': <class 'gluon.tools.Auth'>, 'B': <class 'gluon.html.B'>, 'BEAUTIFY': <class 'gluon.html.BEAUTIFY'>, 'BODY': <class 'gluon.html.BODY'>, 'BR': <class 'gluon.html.BR'>, 'BUTTON': <class 'gluon.html.BUTTON'>, 'CAT': <class 'gluon.html.CAT'>, 'CENTER': <class 'gluon.html.CENTER'>, 'CLEANUP': <class 'gluon.validators.CLEANUP'>, ...}"
p2999
sS'ccode'
p3000
S'<code object <module> at 0xaf58e920, file "/home.../PhotoUpload/views/default/picture.html", line 1>'
p3001
ssS'lnum'
p3002
I205
sS'lines'
p3003
(dp3004
I200
S'    try:'
p3005
sI201
S'        if type(code) == types.CodeType:'
p3006
sI202
S'            ccode = code'
p3007
sI203
S'        else:'
p3008
sI204
S'            ccode = compile2(code,layer)'
p3009
sI205
S'        exec ccode in environment'
p3010
sI206
S'    except HTTP:'
p3011
sI207
S'        raise'
p3012
sI208
S'    except RestrictedError:'
p3013
sI209
S'        # do not encapsulate (obfuscate) the original RestrictedError'
p3014
ssS'call'
p3015
S'(code=r"response.write(\'<!DOCTYPE html>\\n<!-- paulirish....  </div>\\n-->\\n</body>\\n</html>\\n\', escape=False)", environment={\'A\': <class \'gluon.html.A\'>, \'Auth\': <class \'gluon.tools.Auth\'>, \'B\': <class \'gluon.html.B\'>, \'BEAUTIFY\': <class \'gluon.html.BEAUTIFY\'>, \'BODY\': <class \'gluon.html.BODY\'>, \'BR\': <class \'gluon.html.BR\'>, \'BUTTON\': <class \'gluon.html.BUTTON\'>, \'CAT\': <class \'gluon.html.CAT\'>, \'CENTER\': <class \'gluon.html.CENTER\'>, \'CLEANUP\': <class \'gluon.validators.CLEANUP\'>, ...}, layer=\'/home/anu/Desktop/M12/ssad m12/web2py/applications/PhotoUpload/views/default/picture.html\')'
p3016
sS'func'
p3017
S'restricted'
p3018
sa(dp3019
g2994
S'/home/anu/Desktop/M12/ssad m12/web2py/applications/PhotoUpload/views/default/picture.html'
p3020
sg2996
(dp3021
sg3002
I100
sg3003
(dp3022
I96
S"response.write(URL('download',args=p.image))"
p3023
sI97
S'response.write(\'" style="width:900px;padding:0px"/>\\n</div><br/>\\n<div style="font-size:30px;margin-left:50px;margin-top:10px">\', escape=False)'
p3024
sI98
S'response.write(len(l))'
p3025
sI99
S"response.write('</div>\\n ', escape=False)"
p3026
sI100
S'if len(comment):'
p3027
sI101
S"    response.write('\\n\\n  <h2>Comments</h2><br /><p>\\n  ', escape=False)"
p3028
sI102
S'    for c in comment:'
p3029
sI103
S"        response.write('\\n\\n    <p>', escape=False)"
p3030
sI104
S'        response.write(c.author)'
p3031
sI105
S"        response.write(' says <i>', escape=False)"
p3032
sI106
S'        response.write(c.comment)'
p3033
sI107
S"        response.write('</i></p>\\n\\n  ', escape=False)"
p3034
sI108
S'        pass'
p3035
sI109
S"    response.write('</p>\\n', escape=False)"
p3036
sI110
S'else:'
p3037
sI91
S'response.write(\' columns center">\\n          \', escape=False)'
p3038
sI92
S"response.write('\\n          ', escape=False)"
p3039
sI93
S'response.write(\'\\n<h3 style="text-align:center">\', escape=False)'
p3040
sI94
S'response.write(p.title)'
p3041
sI95
S'response.write(\'</h3><br/>\\n<div style="width:900px;border:1px solid #ccc; background-color:white;padding:5px 5px 0px 5px">\\n    <img src="\', escape=False)'
p3042
ssg3015
S'()'
p3043
sg3017
S'<module>'
p3044
sasS'pyver'
p3045
S'Python 2.7.3: /usr/bin/python'
p3046
sS'session'
p3047
g57
(g58
g59
NtRp3048
(dp3049
g62
(dp3050
sg64
(lp3051
g57
(g66
g59
NtRp3052
(dp3053
g62
(dp3054
g70
I5
ssg71
Nsg64
(lp3055
g57
(g73
g59
NtRp3056
(dp3057
g62
(dp3058
sg71
g3052
sg64
(lp3059
g57
(g78
g59
NtRp3060
(dp3061
g62
(dp3062
g82
g83
ssg71
g3056
sg64
(lp3063
S'auth'
p3064
asbag57
(g78
g59
NtRp3065
(dp3066
g62
(dp3067
g89
g90
ssg71
g3056
sg64
(lp3068
S':'
asbag57
(g78
g59
NtRp3069
(dp3070
g62
(dp3071
sg71
g3056
sg64
(lp3072
g57
(g58
g59
NtRp3073
(dp3074
g62
(dp3075
g70
I5
ssg71
g3069
sg64
(lp3076
g57
(g66
g59
NtRp3077
(dp3078
g62
(dp3079
g70
I4
ssg71
Nsg64
(lp3080
g57
(g73
g59
NtRp3081
(dp3082
g62
(dp3083
sg71
g3077
sg64
(lp3084
g57
(g78
g59
NtRp3085
(dp3086
g62
(dp3087
g82
g83
ssg71
g3081
sg64
(lp3088
S'expiration'
p3089
asbag57
(g78
g59
NtRp3090
(dp3091
g62
(dp3092
g89
g90
ssg71
g3081
sg64
(lp3093
S':'
asbag57
(g78
g59
NtRp3094
(dp3095
g62
(dp3096
sg71
g3081
sg64
(lp3097
g57
(g58
g59
NtRp3098
(dp3099
g62
(dp3100
g70
I4
ssg71
g3094
sg64
(lp3101
S'3600'
p3102
asbasbasbag57
(g73
g59
NtRp3103
(dp3104
g62
(dp3105
sg71
g3077
sg64
(lp3106
g57
(g78
g59
NtRp3107
(dp3108
g62
(dp3109
g82
g83
ssg71
g3103
sg64
(lp3110
S'hmac_key'
p3111
asbag57
(g78
g59
NtRp3112
(dp3113
g62
(dp3114
g89
g90
ssg71
g3103
sg64
(lp3115
S':'
asbag57
(g78
g59
NtRp3116
(dp3117
g62
(dp3118
sg71
g3103
sg64
(lp3119
g57
(g58
g59
NtRp3120
(dp3121
g62
(dp3122
g70
I4
ssg71
g3116
sg64
(lp3123
S'7a81c8e7-40d5-481a-abd2-fbbfdc5e8bdc'
p3124
asbasbasbag57
(g73
g59
NtRp3125
(dp3126
g62
(dp3127
sg71
g3077
sg64
(lp3128
g57
(g78
g59
NtRp3129
(dp3130
g62
(dp3131
g82
g83
ssg71
g3125
sg64
(lp3132
S'last_visit'
p3133
asbag57
(g78
g59
NtRp3134
(dp3135
g62
(dp3136
g89
g90
ssg71
g3125
sg64
(lp3137
S':'
asbag57
(g78
g59
NtRp3138
(dp3139
g62
(dp3140
sg71
g3125
sg64
(lp3141
g57
(g58
g59
NtRp3142
(dp3143
g62
(dp3144
g70
I4
ssg71
g3138
sg64
(lp3145
S'datetime.datetime(2012, 8, 30, 21, 33, 28, 75659)'
p3146
asbasbasbag57
(g73
g59
NtRp3147
(dp3148
g62
(dp3149
sg71
g3077
sg64
(lp3150
g57
(g78
g59
NtRp3151
(dp3152
g62
(dp3153
g82
g83
ssg71
g3147
sg64
(lp3154
S'remember'
p3155
asbag57
(g78
g59
NtRp3156
(dp3157
g62
(dp3158
g89
g90
ssg71
g3147
sg64
(lp3159
S':'
asbag57
(g78
g59
NtRp3160
(dp3161
g62
(dp3162
sg71
g3147
sg64
(lp3163
g57
(g58
g59
NtRp3164
(dp3165
g62
(dp3166
g70
I4
ssg71
g3160
sg64
(lp3167
g100
asbasbasbag57
(g73
g59
NtRp3168
(dp3169
g62
(dp3170
sg71
g3077
sg64
(lp3171
g57
(g78
g59
NtRp3172
(dp3173
g62
(dp3174
g82
g83
ssg71
g3168
sg64
(lp3175
S'user'
p3176
asbag57
(g78
g59
NtRp3177
(dp3178
g62
(dp3179
g89
g90
ssg71
g3168
sg64
(lp3180
S':'
asbag57
(g78
g59
NtRp3181
(dp3182
g62
(dp3183
sg71
g3168
sg64
(lp3184
g57
(g58
g59
NtRp3185
(dp3186
g62
(dp3187
g70
I4
ssg71
g3181
sg64
(lp3188
g57
(g66
g59
NtRp3189
(dp3190
g62
(dp3191
g70
I3
ssg71
Nsg64
(lp3192
g57
(g73
g59
NtRp3193
(dp3194
g62
(dp3195
sg71
g3189
sg64
(lp3196
g57
(g78
g59
NtRp3197
(dp3198
g62
(dp3199
g82
g83
ssg71
g3193
sg64
(lp3200
S'email'
p3201
asbag57
(g78
g59
NtRp3202
(dp3203
g62
(dp3204
g89
g90
ssg71
g3193
sg64
(lp3205
S':'
asbag57
(g78
g59
NtRp3206
(dp3207
g62
(dp3208
sg71
g3193
sg64
(lp3209
g57
(g58
g59
NtRp3210
(dp3211
g62
(dp3212
g70
I3
ssg71
g3206
sg64
(lp3213
S'inumella.anupriya@gmail.com'
p3214
asbasbasbag57
(g73
g59
NtRp3215
(dp3216
g62
(dp3217
sg71
g3189
sg64
(lp3218
g57
(g78
g59
NtRp3219
(dp3220
g62
(dp3221
g82
g83
ssg71
g3215
sg64
(lp3222
S'first_name'
p3223
asbag57
(g78
g59
NtRp3224
(dp3225
g62
(dp3226
g89
g90
ssg71
g3215
sg64
(lp3227
S':'
asbag57
(g78
g59
NtRp3228
(dp3229
g62
(dp3230
sg71
g3215
sg64
(lp3231
g57
(g58
g59
NtRp3232
(dp3233
g62
(dp3234
g70
I3
ssg71
g3228
sg64
(lp3235
S'Anu'
p3236
asbasbasbag57
(g73
g59
NtRp3237
(dp3238
g62
(dp3239
sg71
g3189
sg64
(lp3240
g57
(g78
g59
NtRp3241
(dp3242
g62
(dp3243
g82
g83
ssg71
g3237
sg64
(lp3244
S'id'
p3245
asbag57
(g78
g59
NtRp3246
(dp3247
g62
(dp3248
g89
g90
ssg71
g3237
sg64
(lp3249
S':'
asbag57
(g78
g59
NtRp3250
(dp3251
g62
(dp3252
sg71
g3237
sg64
(lp3253
g57
(g58
g59
NtRp3254
(dp3255
g62
(dp3256
g70
I3
ssg71
g3250
sg64
(lp3257
S'3'
asbasbasbag57
(g73
g59
NtRp3258
(dp3259
g62
(dp3260
sg71
g3189
sg64
(lp3261
g57
(g78
g59
NtRp3262
(dp3263
g62
(dp3264
g82
g83
ssg71
g3258
sg64
(lp3265
S'last_name'
p3266
asbag57
(g78
g59
NtRp3267
(dp3268
g62
(dp3269
g89
g90
ssg71
g3258
sg64
(lp3270
S':'
asbag57
(g78
g59
NtRp3271
(dp3272
g62
(dp3273
sg71
g3258
sg64
(lp3274
g57
(g58
g59
NtRp3275
(dp3276
g62
(dp3277
g70
I3
ssg71
g3271
sg64
(lp3278
S'I'
asbasbasbag57
(g73
g59
NtRp3279
(dp3280
g62
(dp3281
sg71
g3189
sg64
(lp3282
g57
(g78
g59
NtRp3283
(dp3284
g62
(dp3285
g82
g83
ssg71
g3279
sg64
(lp3286
S'password'
p3287
asbag57
(g78
g59
NtRp3288
(dp3289
g62
(dp3290
g89
g90
ssg71
g3279
sg64
(lp3291
S':'
asbag57
(g78
g59
NtRp3292
(dp3293
g62
(dp3294
sg71
g3279
sg64
(lp3295
g57
(g58
g59
NtRp3296
(dp3297
g62
(dp3298
g70
I3
ssg71
g3292
sg64
(lp3299
S'05197b267c6d6958fabd507893823629'
p3300
asbasbasbag57
(g73
g59
NtRp3301
(dp3302
g62
(dp3303
sg71
g3189
sg64
(lp3304
g57
(g78
g59
NtRp3305
(dp3306
g62
(dp3307
g82
g83
ssg71
g3301
sg64
(lp3308
S'registration_id'
p3309
asbag57
(g78
g59
NtRp3310
(dp3311
g62
(dp3312
g89
g90
ssg71
g3301
sg64
(lp3313
S':'
asbag57
(g78
g59
NtRp3314
(dp3315
g62
(dp3316
sg71
g3301
sg64
(lp3317
g57
(g58
g59
NtRp3318
(dp3319
g62
(dp3320
g70
I3
ssg71
g3314
sg64
(lp3321
S''
asbasbasbag57
(g73
g59
NtRp3322
(dp3323
g62
(dp3324
sg71
g3189
sg64
(lp3325
g57
(g78
g59
NtRp3326
(dp3327
g62
(dp3328
g82
g83
ssg71
g3322
sg64
(lp3329
S'registration_key'
p3330
asbag57
(g78
g59
NtRp3331
(dp3332
g62
(dp3333
g89
g90
ssg71
g3322
sg64
(lp3334
S':'
asbag57
(g78
g59
NtRp3335
(dp3336
g62
(dp3337
sg71
g3322
sg64
(lp3338
g57
(g58
g59
NtRp3339
(dp3340
g62
(dp3341
g70
I3
ssg71
g3335
sg64
(lp3342
S''
asbasbasbag57
(g73
g59
NtRp3343
(dp3344
g62
(dp3345
sg71
g3189
sg64
(lp3346
g57
(g78
g59
NtRp3347
(dp3348
g62
(dp3349
g82
g83
ssg71
g3343
sg64
(lp3350
S'reset_password_key'
p3351
asbag57
(g78
g59
NtRp3352
(dp3353
g62
(dp3354
g89
g90
ssg71
g3343
sg64
(lp3355
S':'
asbag57
(g78
g59
NtRp3356
(dp3357
g62
(dp3358
sg71
g3343
sg64
(lp3359
g57
(g58
g59
NtRp3360
(dp3361
g62
(dp3362
g70
I3
ssg71
g3356
sg64
(lp3363
S''
asbasbasbasbasbasbasbag57
(g73
g59
NtRp3364
(dp3365
g62
(dp3366
sg71
g3077
sg64
(lp3367
g57
(g78
g59
NtRp3368
(dp3369
g62
(dp3370
g82
g83
ssg71
g3364
sg64
(lp3371
S'user_groups'
p3372
asbag57
(g78
g59
NtRp3373
(dp3374
g62
(dp3375
g89
g90
ssg71
g3364
sg64
(lp3376
S':'
asbag57
(g78
g59
NtRp3377
(dp3378
g62
(dp3379
sg71
g3364
sg64
(lp3380
g57
(g58
g59
NtRp3381
(dp3382
g62
(dp3383
g70
I4
ssg71
g3377
sg64
(lp3384
g57
(g66
g59
NtRp3385
(dp3386
g62
(dp3387
g70
I3
ssg71
Nsg64
(lp3388
g57
(g73
g59
NtRp3389
(dp3390
g62
(dp3391
sg71
g3385
sg64
(lp3392
g57
(g78
g59
NtRp3393
(dp3394
g62
(dp3395
g82
g83
ssg71
g3389
sg64
(lp3396
S'3'
asbag57
(g78
g59
NtRp3397
(dp3398
g62
(dp3399
g89
g90
ssg71
g3389
sg64
(lp3400
S':'
asbag57
(g78
g59
NtRp3401
(dp3402
g62
(dp3403
sg71
g3389
sg64
(lp3404
g57
(g58
g59
NtRp3405
(dp3406
g62
(dp3407
g70
I3
ssg71
g3401
sg64
(lp3408
S'user_3'
p3409
asbasbasbasbasbasbasbasbasbasbasbag57
(g73
g59
NtRp3410
(dp3411
g62
(dp3412
sg71
g3052
sg64
(lp3413
g57
(g78
g59
NtRp3414
(dp3415
g62
(dp3416
g82
g83
ssg71
g3410
sg64
(lp3417
S'last_query'
p3418
asbag57
(g78
g59
NtRp3419
(dp3420
g62
(dp3421
g89
g90
ssg71
g3410
sg64
(lp3422
S':'
asbag57
(g78
g59
NtRp3423
(dp3424
g62
(dp3425
sg71
g3410
sg64
(lp3426
g57
(g58
g59
NtRp3427
(dp3428
g62
(dp3429
g70
I5
ssg71
g3423
sg64
(lp3430
S'db.comments.id>0'
p3431
asbasbasbasbasbsS'etype'
p3432
S"<type 'exceptions.NameError'>"
p3433
sS'date'
p3434
S'Thu Aug 30 21:36:15 2012'
p3435
sS'response'
p3436
g57
(g58
g59
NtRp3437
(dp3438
g62
(dp3439
sg64
(lp3440
g57
(g66
g59
NtRp3441
(dp3442
g62
(dp3443
g70
I5
ssg71
Nsg64
(lp3444
g57
(g73
g59
NtRp3445
(dp3446
g62
(dp3447
sg71
g3441
sg64
(lp3448
g57
(g78
g59
NtRp3449
(dp3450
g62
(dp3451
g82
g83
ssg71
g3445
sg64
(lp3452
g167
asbag57
(g78
g59
NtRp3453
(dp3454
g62
(dp3455
g89
g90
ssg71
g3445
sg64
(lp3456
S':'
asbag57
(g78
g59
NtRp3457
(dp3458
g62
(dp3459
sg71
g3445
sg64
(lp3460
g57
(g58
g59
NtRp3461
(dp3462
g62
(dp3463
g70
I5
ssg71
g3457
sg64
(lp3464
S'<cStringIO.StringO object at 0xae6153c0>'
p3465
asbasbasbag57
(g73
g59
NtRp3466
(dp3467
g62
(dp3468
sg71
g3441
sg64
(lp3469
g57
(g78
g59
NtRp3470
(dp3471
g62
(dp3472
g82
g83
ssg71
g3466
sg64
(lp3473
g233
asbag57
(g78
g59
NtRp3474
(dp3475
g62
(dp3476
g89
g90
ssg71
g3466
sg64
(lp3477
S':'
asbag57
(g78
g59
NtRp3478
(dp3479
g62
(dp3480
sg71
g3466
sg64
(lp3481
g57
(g58
g59
NtRp3482
(dp3483
g62
(dp3484
g70
I5
ssg71
g3478
sg64
(lp3485
g57
(g66
g59
NtRp3486
(dp3487
g62
(dp3488
g70
I4
ssg71
Nsg64
(lp3489
g57
(g73
g59
NtRp3490
(dp3491
g62
(dp3492
sg71
g3486
sg64
(lp3493
g57
(g78
g59
NtRp3494
(dp3495
g62
(dp3496
g82
g83
ssg71
g3490
sg64
(lp3497
S'session_id_photoupload'
p3498
asbag57
(g78
g59
NtRp3499
(dp3500
g62
(dp3501
g89
g90
ssg71
g3490
sg64
(lp3502
S':'
asbag57
(g78
g59
NtRp3503
(dp3504
g62
(dp3505
sg71
g3490
sg64
(lp3506
g57
(g58
g59
NtRp3507
(dp3508
g62
(dp3509
g70
I4
ssg71
g3503
sg64
(lp3510
g57
(g66
g59
NtRp3511
(dp3512
g62
(dp3513
g70
I3
ssg71
Nsg64
(lp3514
g57
(g73
g59
NtRp3515
(dp3516
g62
(dp3517
sg71
g3511
sg64
(lp3518
g57
(g78
g59
NtRp3519
(dp3520
g62
(dp3521
g82
g83
ssg71
g3515
sg64
(lp3522
g283
asbag57
(g78
g59
NtRp3523
(dp3524
g62
(dp3525
g89
g90
ssg71
g3515
sg64
(lp3526
S':'
asbag57
(g78
g59
NtRp3527
(dp3528
g62
(dp3529
sg71
g3515
sg64
(lp3530
g57
(g58
g59
NtRp3531
(dp3532
g62
(dp3533
g70
I3
ssg71
g3527
sg64
(lp3534
S''
asbasbasbag57
(g73
g59
NtRp3535
(dp3536
g62
(dp3537
sg71
g3511
sg64
(lp3538
g57
(g78
g59
NtRp3539
(dp3540
g62
(dp3541
g82
g83
ssg71
g3535
sg64
(lp3542
g304
asbag57
(g78
g59
NtRp3543
(dp3544
g62
(dp3545
g89
g90
ssg71
g3535
sg64
(lp3546
S':'
asbag57
(g78
g59
NtRp3547
(dp3548
g62
(dp3549
sg71
g3535
sg64
(lp3550
g57
(g58
g59
NtRp3551
(dp3552
g62
(dp3553
g70
I3
ssg71
g3547
sg64
(lp3554
S''
asbasbasbag57
(g73
g59
NtRp3555
(dp3556
g62
(dp3557
sg71
g3511
sg64
(lp3558
g57
(g78
g59
NtRp3559
(dp3560
g62
(dp3561
g82
g83
ssg71
g3555
sg64
(lp3562
g325
asbag57
(g78
g59
NtRp3563
(dp3564
g62
(dp3565
g89
g90
ssg71
g3555
sg64
(lp3566
S':'
asbag57
(g78
g59
NtRp3567
(dp3568
g62
(dp3569
sg71
g3555
sg64
(lp3570
g57
(g58
g59
NtRp3571
(dp3572
g62
(dp3573
g70
I3
ssg71
g3567
sg64
(lp3574
S''
asbasbasbag57
(g73
g59
NtRp3575
(dp3576
g62
(dp3577
sg71
g3511
sg64
(lp3578
g57
(g78
g59
NtRp3579
(dp3580
g62
(dp3581
g82
g83
ssg71
g3575
sg64
(lp3582
g346
asbag57
(g78
g59
NtRp3583
(dp3584
g62
(dp3585
g89
g90
ssg71
g3575
sg64
(lp3586
S':'
asbag57
(g78
g59
NtRp3587
(dp3588
g62
(dp3589
sg71
g3575
sg64
(lp3590
g57
(g58
g59
NtRp3591
(dp3592
g62
(dp3593
g70
I3
ssg71
g3587
sg64
(lp3594
S''
asbasbasbag57
(g73
g59
NtRp3595
(dp3596
g62
(dp3597
sg71
g3511
sg64
(lp3598
g57
(g78
g59
NtRp3599
(dp3600
g62
(dp3601
g82
g83
ssg71
g3595
sg64
(lp3602
g367
asbag57
(g78
g59
NtRp3603
(dp3604
g62
(dp3605
g89
g90
ssg71
g3595
sg64
(lp3606
S':'
asbag57
(g78
g59
NtRp3607
(dp3608
g62
(dp3609
sg71
g3595
sg64
(lp3610
g57
(g58
g59
NtRp3611
(dp3612
g62
(dp3613
g70
I3
ssg71
g3607
sg64
(lp3614
S''
asbasbasbag57
(g73
g59
NtRp3615
(dp3616
g62
(dp3617
sg71
g3511
sg64
(lp3618
g57
(g78
g59
NtRp3619
(dp3620
g62
(dp3621
g82
g83
ssg71
g3615
sg64
(lp3622
g388
asbag57
(g78
g59
NtRp3623
(dp3624
g62
(dp3625
g89
g90
ssg71
g3615
sg64
(lp3626
S':'
asbag57
(g78
g59
NtRp3627
(dp3628
g62
(dp3629
sg71
g3615
sg64
(lp3630
g57
(g58
g59
NtRp3631
(dp3632
g62
(dp3633
g70
I3
ssg71
g3627
sg64
(lp3634
S'/'
asbasbasbag57
(g73
g59
NtRp3635
(dp3636
g62
(dp3637
sg71
g3511
sg64
(lp3638
g57
(g78
g59
NtRp3639
(dp3640
g62
(dp3641
g82
g83
ssg71
g3635
sg64
(lp3642
g409
asbag57
(g78
g59
NtRp3643
(dp3644
g62
(dp3645
g89
g90
ssg71
g3635
sg64
(lp3646
S':'
asbag57
(g78
g59
NtRp3647
(dp3648
g62
(dp3649
sg71
g3635
sg64
(lp3650
g57
(g58
g59
NtRp3651
(dp3652
g62
(dp3653
g70
I3
ssg71
g3647
sg64
(lp3654
S''
asbasbasbag57
(g73
g59
NtRp3655
(dp3656
g62
(dp3657
sg71
g3511
sg64
(lp3658
g57
(g78
g59
NtRp3659
(dp3660
g62
(dp3661
g82
g83
ssg71
g3655
sg64
(lp3662
g430
asbag57
(g78
g59
NtRp3663
(dp3664
g62
(dp3665
g89
g90
ssg71
g3655
sg64
(lp3666
S':'
asbag57
(g78
g59
NtRp3667
(dp3668
g62
(dp3669
sg71
g3655
sg64
(lp3670
g57
(g58
g59
NtRp3671
(dp3672
g62
(dp3673
g70
I3
ssg71
g3667
sg64
(lp3674
S''
asbasbasbasbasbasbasbasbasbasbasbag57
(g73
g59
NtRp3675
(dp3676
g62
(dp3677
sg71
g3441
sg64
(lp3678
g57
(g78
g59
NtRp3679
(dp3680
g62
(dp3681
g82
g83
ssg71
g3675
sg64
(lp3682
S'delimiters'
p3683
asbag57
(g78
g59
NtRp3684
(dp3685
g62
(dp3686
g89
g90
ssg71
g3675
sg64
(lp3687
S':'
asbag57
(g78
g59
NtRp3688
(dp3689
g62
(dp3690
sg71
g3675
sg64
(lp3691
g57
(g58
g59
NtRp3692
(dp3693
g62
(dp3694
g70
I5
ssg71
g3688
sg64
(lp3695
g57
(g66
g59
NtRp3696
(dp3697
g62
(dp3698
g70
I4
ssg71
Nsg64
(lp3699
g57
(g73
g59
NtRp3700
(dp3701
g62
(dp3702
sg71
g3696
sg64
(lp3703
g57
(g78
g59
NtRp3704
(dp3705
g62
(dp3706
sg71
g3700
sg64
(lp3707
g57
(g58
g59
NtRp3708
(dp3709
g62
(dp3710
g70
I4
ssg71
g3704
sg64
(lp3711
S'{{'
p3712
asbasbasbag57
(g73
g59
NtRp3713
(dp3714
g62
(dp3715
sg71
g3696
sg64
(lp3716
g57
(g78
g59
NtRp3717
(dp3718
g62
(dp3719
sg71
g3713
sg64
(lp3720
g57
(g58
g59
NtRp3721
(dp3722
g62
(dp3723
g70
I4
ssg71
g3717
sg64
(lp3724
S'}}'
p3725
asbasbasbasbasbasbasbag57
(g73
g59
NtRp3726
(dp3727
g62
(dp3728
sg71
g3441
sg64
(lp3729
g57
(g78
g59
NtRp3730
(dp3731
g62
(dp3732
g82
g83
ssg71
g3726
sg64
(lp3733
S'files'
p3734
asbag57
(g78
g59
NtRp3735
(dp3736
g62
(dp3737
g89
g90
ssg71
g3726
sg64
(lp3738
S':'
asbag57
(g78
g59
NtRp3739
(dp3740
g62
(dp3741
sg71
g3726
sg64
(lp3742
g57
(g58
g59
NtRp3743
(dp3744
g62
(dp3745
g70
I5
ssg71
g3739
sg64
(lp3746
g57
(g66
g59
NtRp3747
(dp3748
g62
(dp3749
g70
I4
ssg71
Nsg64
(lp3750
g57
(g73
g59
NtRp3751
(dp3752
g62
(dp3753
sg71
g3747
sg64
(lp3754
g57
(g78
g59
NtRp3755
(dp3756
g62
(dp3757
sg71
g3751
sg64
(lp3758
g57
(g58
g59
NtRp3759
(dp3760
g62
(dp3761
g70
I4
ssg71
g3755
sg64
(lp3762
S'/PhotoUpload/static/js/jquery.js'
p3763
asbasbasbag57
(g73
g59
NtRp3764
(dp3765
g62
(dp3766
sg71
g3747
sg64
(lp3767
g57
(g78
g59
NtRp3768
(dp3769
g62
(dp3770
sg71
g3764
sg64
(lp3771
g57
(g58
g59
NtRp3772
(dp3773
g62
(dp3774
g70
I4
ssg71
g3768
sg64
(lp3775
S'/PhotoUpload/static/css/calendar.css'
p3776
asbasbasbag57
(g73
g59
NtRp3777
(dp3778
g62
(dp3779
sg71
g3747
sg64
(lp3780
g57
(g78
g59
NtRp3781
(dp3782
g62
(dp3783
sg71
g3777
sg64
(lp3784
g57
(g58
g59
NtRp3785
(dp3786
g62
(dp3787
g70
I4
ssg71
g3781
sg64
(lp3788
S'/PhotoUpload/static/js/calendar.js'
p3789
asbasbasbag57
(g73
g59
NtRp3790
(dp3791
g62
(dp3792
sg71
g3747
sg64
(lp3793
g57
(g78
g59
NtRp3794
(dp3795
g62
(dp3796
sg71
g3790
sg64
(lp3797
g57
(g58
g59
NtRp3798
(dp3799
g62
(dp3800
g70
I4
ssg71
g3794
sg64
(lp3801
S'/PhotoUpload/static/js/web2py.js'
p3802
asbasbasbag57
(g73
g59
NtRp3803
(dp3804
g62
(dp3805
sg71
g3747
sg64
(lp3806
g57
(g78
g59
NtRp3807
(dp3808
g62
(dp3809
sg71
g3803
sg64
(lp3810
g57
(g58
g59
NtRp3811
(dp3812
g62
(dp3813
g70
I4
ssg71
g3807
sg64
(lp3814
S'/PhotoUpload/static/css/skeleton.css'
p3815
asbasbasbag57
(g73
g59
NtRp3816
(dp3817
g62
(dp3818
sg71
g3747
sg64
(lp3819
g57
(g78
g59
NtRp3820
(dp3821
g62
(dp3822
sg71
g3816
sg64
(lp3823
g57
(g58
g59
NtRp3824
(dp3825
g62
(dp3826
g70
I4
ssg71
g3820
sg64
(lp3827
S'/PhotoUpload/static/css/web2py.css'
p3828
asbasbasbag57
(g73
g59
NtRp3829
(dp3830
g62
(dp3831
sg71
g3747
sg64
(lp3832
g57
(g78
g59
NtRp3833
(dp3834
g62
(dp3835
sg71
g3829
sg64
(lp3836
g57
(g58
g59
NtRp3837
(dp3838
g62
(dp3839
g70
I4
ssg71
g3833
sg64
(lp3840
S'/PhotoUpload/static/css/superfish.css'
p3841
asbasbasbag57
(g73
g59
NtRp3842
(dp3843
g62
(dp3844
sg71
g3747
sg64
(lp3845
g57
(g78
g59
NtRp3846
(dp3847
g62
(dp3848
sg71
g3842
sg64
(lp3849
g57
(g58
g59
NtRp3850
(dp3851
g62
(dp3852
g70
I4
ssg71
g3846
sg64
(lp3853
S'/PhotoUpload/static/js/superfish.js'
p3854
asbasbasbasbasbasbasbag57
(g73
g59
NtRp3855
(dp3856
g62
(dp3857
sg71
g3441
sg64
(lp3858
g57
(g78
g59
NtRp3859
(dp3860
g62
(dp3861
g82
g83
ssg71
g3855
sg64
(lp3862
S'flash'
p3863
asbag57
(g78
g59
NtRp3864
(dp3865
g62
(dp3866
g89
g90
ssg71
g3855
sg64
(lp3867
S':'
asbag57
(g78
g59
NtRp3868
(dp3869
g62
(dp3870
sg71
g3855
sg64
(lp3871
g57
(g58
g59
NtRp3872
(dp3873
g62
(dp3874
g70
I5
ssg71
g3868
sg64
(lp3875
S''
asbasbasbag57
(g73
g59
NtRp3876
(dp3877
g62
(dp3878
sg71
g3441
sg64
(lp3879
g57
(g78
g59
NtRp3880
(dp3881
g62
(dp3882
g82
g83
ssg71
g3876
sg64
(lp3883
S'generic_patterns'
p3884
asbag57
(g78
g59
NtRp3885
(dp3886
g62
(dp3887
g89
g90
ssg71
g3876
sg64
(lp3888
S':'
asbag57
(g78
g59
NtRp3889
(dp3890
g62
(dp3891
sg71
g3876
sg64
(lp3892
g57
(g58
g59
NtRp3893
(dp3894
g62
(dp3895
g70
I5
ssg71
g3889
sg64
(lp3896
g57
(g66
g59
NtRp3897
(dp3898
g62
(dp3899
g70
I4
ssg71
Nsg64
(lp3900
g57
(g73
g59
NtRp3901
(dp3902
g62
(dp3903
sg71
g3897
sg64
(lp3904
g57
(g78
g59
NtRp3905
(dp3906
g62
(dp3907
sg71
g3901
sg64
(lp3908
g57
(g58
g59
NtRp3909
(dp3910
g62
(dp3911
g70
I4
ssg71
g3905
sg64
(lp3912
S'*'
asbasbasbasbasbasbasbag57
(g73
g59
NtRp3913
(dp3914
g62
(dp3915
sg71
g3441
sg64
(lp3916
g57
(g78
g59
NtRp3917
(dp3918
g62
(dp3919
g82
g83
ssg71
g3913
sg64
(lp3920
S'headers'
p3921
asbag57
(g78
g59
NtRp3922
(dp3923
g62
(dp3924
g89
g90
ssg71
g3913
sg64
(lp3925
S':'
asbag57
(g78
g59
NtRp3926
(dp3927
g62
(dp3928
sg71
g3913
sg64
(lp3929
g57
(g58
g59
NtRp3930
(dp3931
g62
(dp3932
g70
I5
ssg71
g3926
sg64
(lp3933
g57
(g66
g59
NtRp3934
(dp3935
g62
(dp3936
g70
I4
ssg71
Nsg64
(lp3937
g57
(g73
g59
NtRp3938
(dp3939
g62
(dp3940
sg71
g3934
sg64
(lp3941
g57
(g78
g59
NtRp3942
(dp3943
g62
(dp3944
g82
g83
ssg71
g3938
sg64
(lp3945
S'Cache-Control'
p3946
asbag57
(g78
g59
NtRp3947
(dp3948
g62
(dp3949
g89
g90
ssg71
g3938
sg64
(lp3950
S':'
asbag57
(g78
g59
NtRp3951
(dp3952
g62
(dp3953
sg71
g3938
sg64
(lp3954
g57
(g58
g59
NtRp3955
(dp3956
g62
(dp3957
g70
I4
ssg71
g3951
sg64
(lp3958
S'no-store, no-cache, must-revalidate, post-check=0, pre-check=0'
p3959
asbasbasbag57
(g73
g59
NtRp3960
(dp3961
g62
(dp3962
sg71
g3934
sg64
(lp3963
g57
(g78
g59
NtRp3964
(dp3965
g62
(dp3966
g82
g83
ssg71
g3960
sg64
(lp3967
S'Content-Type'
p3968
asbag57
(g78
g59
NtRp3969
(dp3970
g62
(dp3971
g89
g90
ssg71
g3960
sg64
(lp3972
S':'
asbag57
(g78
g59
NtRp3973
(dp3974
g62
(dp3975
sg71
g3960
sg64
(lp3976
g57
(g58
g59
NtRp3977
(dp3978
g62
(dp3979
g70
I4
ssg71
g3973
sg64
(lp3980
S'text/html; charset=utf-8'
p3981
asbasbasbag57
(g73
g59
NtRp3982
(dp3983
g62
(dp3984
sg71
g3934
sg64
(lp3985
g57
(g78
g59
NtRp3986
(dp3987
g62
(dp3988
g82
g83
ssg71
g3982
sg64
(lp3989
S'Expires'
p3990
asbag57
(g78
g59
NtRp3991
(dp3992
g62
(dp3993
g89
g90
ssg71
g3982
sg64
(lp3994
S':'
asbag57
(g78
g59
NtRp3995
(dp3996
g62
(dp3997
sg71
g3982
sg64
(lp3998
g57
(g58
g59
NtRp3999
(dp4000
g62
(dp4001
g70
I4
ssg71
g3995
sg64
(lp4002
S'Thu, 30 Aug 2012 16:06:14 GMT'
p4003
asbasbasbag57
(g73
g59
NtRp4004
(dp4005
g62
(dp4006
sg71
g3934
sg64
(lp4007
g57
(g78
g59
NtRp4008
(dp4009
g62
(dp4010
g82
g83
ssg71
g4004
sg64
(lp4011
S'Pragma'
p4012
asbag57
(g78
g59
NtRp4013
(dp4014
g62
(dp4015
g89
g90
ssg71
g4004
sg64
(lp4016
S':'
asbag57
(g78
g59
NtRp4017
(dp4018
g62
(dp4019
sg71
g4004
sg64
(lp4020
g57
(g58
g59
NtRp4021
(dp4022
g62
(dp4023
g70
I4
ssg71
g4017
sg64
(lp4024
S'no-cache'
p4025
asbasbasbag57
(g73
g59
NtRp4026
(dp4027
g62
(dp4028
sg71
g3934
sg64
(lp4029
g57
(g78
g59
NtRp4030
(dp4031
g62
(dp4032
g82
g83
ssg71
g4026
sg64
(lp4033
S'X-Powered-By'
p4034
asbag57
(g78
g59
NtRp4035
(dp4036
g62
(dp4037
g89
g90
ssg71
g4026
sg64
(lp4038
S':'
asbag57
(g78
g59
NtRp4039
(dp4040
g62
(dp4041
sg71
g4026
sg64
(lp4042
g57
(g58
g59
NtRp4043
(dp4044
g62
(dp4045
g70
I4
ssg71
g4039
sg64
(lp4046
S'web2py'
p4047
asbasbasbasbasbasbasbag57
(g73
g59
NtRp4048
(dp4049
g62
(dp4050
sg71
g3441
sg64
(lp4051
g57
(g78
g59
NtRp4052
(dp4053
g62
(dp4054
g82
g83
ssg71
g4048
sg64
(lp4055
S'menu'
p4056
asbag57
(g78
g59
NtRp4057
(dp4058
g62
(dp4059
g89
g90
ssg71
g4048
sg64
(lp4060
S':'
asbag57
(g78
g59
NtRp4061
(dp4062
g62
(dp4063
sg71
g4048
sg64
(lp4064
g57
(g58
g59
NtRp4065
(dp4066
g62
(dp4067
g70
I5
ssg71
g4061
sg64
(lp4068
g57
(g66
g59
NtRp4069
(dp4070
g62
(dp4071
g70
I4
ssg71
Nsg64
(lp4072
g57
(g73
g59
NtRp4073
(dp4074
g62
(dp4075
sg71
g4069
sg64
(lp4076
g57
(g78
g59
NtRp4077
(dp4078
g62
(dp4079
sg71
g4073
sg64
(lp4080
g57
(g58
g59
NtRp4081
(dp4082
g62
(dp4083
g70
I4
ssg71
g4077
sg64
(lp4084
g57
(g66
g59
NtRp4085
(dp4086
g62
(dp4087
g70
I3
ssg71
Nsg64
(lp4088
g57
(g73
g59
NtRp4089
(dp4090
g62
(dp4091
sg71
g4085
sg64
(lp4092
g57
(g78
g59
NtRp4093
(dp4094
g62
(dp4095
sg71
g4089
sg64
(lp4096
g57
(g58
g59
NtRp4097
(dp4098
g62
(dp4099
g70
I3
ssg71
g4093
sg64
(lp4100
cgluon.languages
lazyT_unpickle
p4101
(S't\x04\x00\x00\x00Home'
tRp4102
asbasbasbag57
(g73
g59
NtRp4103
(dp4104
g62
(dp4105
sg71
g4085
sg64
(lp4106
g57
(g78
g59
NtRp4107
(dp4108
g62
(dp4109
sg71
g4103
sg64
(lp4110
g57
(g58
g59
NtRp4111
(dp4112
g62
(dp4113
g70
I3
ssg71
g4107
sg64
(lp4114
g100
asbasbasbag57
(g73
g59
NtRp4115
(dp4116
g62
(dp4117
sg71
g4085
sg64
(lp4118
g57
(g78
g59
NtRp4119
(dp4120
g62
(dp4121
sg71
g4115
sg64
(lp4122
g57
(g58
g59
NtRp4123
(dp4124
g62
(dp4125
g70
I3
ssg71
g4119
sg64
(lp4126
S'/PhotoUpload/default/index'
p4127
asbasbasbag57
(g73
g59
NtRp4128
(dp4129
g62
(dp4130
sg71
g4085
sg64
(lp4131
g57
(g78
g59
NtRp4132
(dp4133
g62
(dp4134
sg71
g4128
sg64
(lp4135
g57
(g58
g59
NtRp4136
(dp4137
g62
(dp4138
g70
I3
ssg71
g4132
sg64
(lp4139
g57
(g66
g59
NtRp4140
(dp4141
g62
(dp4142
g70
I2
ssg71
Nsg64
(lp4143
sbasbasbasbasbasbasbasbag57
(g73
g59
NtRp4144
(dp4145
g62
(dp4146
sg71
g4069
sg64
(lp4147
g57
(g78
g59
NtRp4148
(dp4149
g62
(dp4150
sg71
g4144
sg64
(lp4151
g57
(g58
g59
NtRp4152
(dp4153
g62
(dp4154
g70
I4
ssg71
g4148
sg64
(lp4155
g57
(g66
g59
NtRp4156
(dp4157
g62
(dp4158
g70
I3
ssg71
Nsg64
(lp4159
g57
(g73
g59
NtRp4160
(dp4161
g62
(dp4162
sg71
g4156
sg64
(lp4163
g57
(g78
g59
NtRp4164
(dp4165
g62
(dp4166
sg71
g4160
sg64
(lp4167
g57
(g58
g59
NtRp4168
(dp4169
g62
(dp4170
g70
I3
ssg71
g4164
sg64
(lp4171
g4101
(S't\x07\x00\x00\x00Gallery'
tRp4172
asbasbasbag57
(g73
g59
NtRp4173
(dp4174
g62
(dp4175
sg71
g4156
sg64
(lp4176
g57
(g78
g59
NtRp4177
(dp4178
g62
(dp4179
sg71
g4173
sg64
(lp4180
g57
(g58
g59
NtRp4181
(dp4182
g62
(dp4183
g70
I3
ssg71
g4177
sg64
(lp4184
g100
asbasbasbag57
(g73
g59
NtRp4185
(dp4186
g62
(dp4187
sg71
g4156
sg64
(lp4188
g57
(g78
g59
NtRp4189
(dp4190
g62
(dp4191
sg71
g4185
sg64
(lp4192
g57
(g58
g59
NtRp4193
(dp4194
g62
(dp4195
g70
I3
ssg71
g4189
sg64
(lp4196
S'/PhotoUpload/default/gallery'
p4197
asbasbasbag57
(g73
g59
NtRp4198
(dp4199
g62
(dp4200
sg71
g4156
sg64
(lp4201
g57
(g78
g59
NtRp4202
(dp4203
g62
(dp4204
sg71
g4198
sg64
(lp4205
g57
(g58
g59
NtRp4206
(dp4207
g62
(dp4208
g70
I3
ssg71
g4202
sg64
(lp4209
g57
(g66
g59
NtRp4210
(dp4211
g62
(dp4212
g70
I2
ssg71
Nsg64
(lp4213
sbasbasbasbasbasbasbasbasbasbasbasbag57
(g73
g59
NtRp4214
(dp4215
g62
(dp4216
sg71
g3441
sg64
(lp4217
g57
(g78
g59
NtRp4218
(dp4219
g62
(dp4220
g82
g83
ssg71
g4214
sg64
(lp4221
S'meta'
p4222
asbag57
(g78
g59
NtRp4223
(dp4224
g62
(dp4225
g89
g90
ssg71
g4214
sg64
(lp4226
S':'
asbag57
(g78
g59
NtRp4227
(dp4228
g62
(dp4229
sg71
g4214
sg64
(lp4230
g57
(g58
g59
NtRp4231
(dp4232
g62
(dp4233
g70
I5
ssg71
g4227
sg64
(lp4234
g57
(g66
g59
NtRp4235
(dp4236
g62
(dp4237
g70
I4
ssg71
Nsg64
(lp4238
g57
(g73
g59
NtRp4239
(dp4240
g62
(dp4241
sg71
g4235
sg64
(lp4242
g57
(g78
g59
NtRp4243
(dp4244
g62
(dp4245
g82
g83
ssg71
g4239
sg64
(lp4246
S'author'
p4247
asbag57
(g78
g59
NtRp4248
(dp4249
g62
(dp4250
g89
g90
ssg71
g4239
sg64
(lp4251
S':'
asbag57
(g78
g59
NtRp4252
(dp4253
g62
(dp4254
sg71
g4239
sg64
(lp4255
g57
(g58
g59
NtRp4256
(dp4257
g62
(dp4258
g70
I4
ssg71
g4252
sg64
(lp4259
S'Your Name <you@example.com>'
p4260
asbasbasbag57
(g73
g59
NtRp4261
(dp4262
g62
(dp4263
sg71
g4235
sg64
(lp4264
g57
(g78
g59
NtRp4265
(dp4266
g62
(dp4267
g82
g83
ssg71
g4261
sg64
(lp4268
S'copyright'
p4269
asbag57
(g78
g59
NtRp4270
(dp4271
g62
(dp4272
g89
g90
ssg71
g4261
sg64
(lp4273
S':'
asbag57
(g78
g59
NtRp4274
(dp4275
g62
(dp4276
sg71
g4261
sg64
(lp4277
g57
(g58
g59
NtRp4278
(dp4279
g62
(dp4280
g70
I4
ssg71
g4274
sg64
(lp4281
S'Copyright 2011'
p4282
asbasbasbag57
(g73
g59
NtRp4283
(dp4284
g62
(dp4285
sg71
g4235
sg64
(lp4286
g57
(g78
g59
NtRp4287
(dp4288
g62
(dp4289
g82
g83
ssg71
g4283
sg64
(lp4290
S'description'
p4291
asbag57
(g78
g59
NtRp4292
(dp4293
g62
(dp4294
g89
g90
ssg71
g4283
sg64
(lp4295
S':'
asbag57
(g78
g59
NtRp4296
(dp4297
g62
(dp4298
sg71
g4283
sg64
(lp4299
g57
(g58
g59
NtRp4300
(dp4301
g62
(dp4302
g70
I4
ssg71
g4296
sg64
(lp4303
S'a cool new app'
p4304
asbasbasbag57
(g73
g59
NtRp4305
(dp4306
g62
(dp4307
sg71
g4235
sg64
(lp4308
g57
(g78
g59
NtRp4309
(dp4310
g62
(dp4311
g82
g83
ssg71
g4305
sg64
(lp4312
S'generator'
p4313
asbag57
(g78
g59
NtRp4314
(dp4315
g62
(dp4316
g89
g90
ssg71
g4305
sg64
(lp4317
S':'
asbag57
(g78
g59
NtRp4318
(dp4319
g62
(dp4320
sg71
g4305
sg64
(lp4321
g57
(g58
g59
NtRp4322
(dp4323
g62
(dp4324
g70
I4
ssg71
g4318
sg64
(lp4325
S'Web2py Web Framework'
p4326
asbasbasbag57
(g73
g59
NtRp4327
(dp4328
g62
(dp4329
sg71
g4235
sg64
(lp4330
g57
(g78
g59
NtRp4331
(dp4332
g62
(dp4333
g82
g83
ssg71
g4327
sg64
(lp4334
S'keywords'
p4335
asbag57
(g78
g59
NtRp4336
(dp4337
g62
(dp4338
g89
g90
ssg71
g4327
sg64
(lp4339
S':'
asbag57
(g78
g59
NtRp4340
(dp4341
g62
(dp4342
sg71
g4327
sg64
(lp4343
g57
(g58
g59
NtRp4344
(dp4345
g62
(dp4346
g70
I4
ssg71
g4340
sg64
(lp4347
S'web2py, python, framework'
p4348
asbasbasbasbasbasbasbag57
(g73
g59
NtRp4349
(dp4350
g62
(dp4351
sg71
g3441
sg64
(lp4352
g57
(g78
g59
NtRp4353
(dp4354
g62
(dp4355
g82
g83
ssg71
g4349
sg64
(lp4356
S'postprocessing'
p4357
asbag57
(g78
g59
NtRp4358
(dp4359
g62
(dp4360
g89
g90
ssg71
g4349
sg64
(lp4361
S':'
asbag57
(g78
g59
NtRp4362
(dp4363
g62
(dp4364
sg71
g4349
sg64
(lp4365
g57
(g58
g59
NtRp4366
(dp4367
g62
(dp4368
g70
I5
ssg71
g4362
sg64
(lp4369
g57
(g66
g59
NtRp4370
(dp4371
g62
(dp4372
g70
I4
ssg71
Nsg64
(lp4373
sbasbasbasbag57
(g73
g59
NtRp4374
(dp4375
g62
(dp4376
sg71
g3441
sg64
(lp4377
g57
(g78
g59
NtRp4378
(dp4379
g62
(dp4380
g82
g83
ssg71
g4374
sg64
(lp4381
S'session_file'
p4382
asbag57
(g78
g59
NtRp4383
(dp4384
g62
(dp4385
g89
g90
ssg71
g4374
sg64
(lp4386
S':'
asbag57
(g78
g59
NtRp4387
(dp4388
g62
(dp4389
sg71
g4374
sg64
(lp4390
g57
(g58
g59
NtRp4391
(dp4392
g62
(dp4393
g70
I5
ssg71
g4387
sg64
(lp4394
S"<open file '/home/anu/Desktop/M12/ssad m12/web2py/applications/PhotoUpload/sessions/127.0.0.1-0f635432-6687-421f-a06a-9fc402d47a2b', mode 'rb+' at 0xaf6b8390>"
p4395
asbasbasbag57
(g73
g59
NtRp4396
(dp4397
g62
(dp4398
sg71
g3441
sg64
(lp4399
g57
(g78
g59
NtRp4400
(dp4401
g62
(dp4402
g82
g83
ssg71
g4396
sg64
(lp4403
S'session_filename'
p4404
asbag57
(g78
g59
NtRp4405
(dp4406
g62
(dp4407
g89
g90
ssg71
g4396
sg64
(lp4408
S':'
asbag57
(g78
g59
NtRp4409
(dp4410
g62
(dp4411
sg71
g4396
sg64
(lp4412
g57
(g58
g59
NtRp4413
(dp4414
g62
(dp4415
g70
I5
ssg71
g4409
sg64
(lp4416
S'/home/anu/Desktop/M12/ssad m12/web2py/applications/PhotoUpload/sessions/127.0.0.1-0f635432-6687-421f-a06a-9fc402d47a2b'
p4417
asbasbasbag57
(g73
g59
NtRp4418
(dp4419
g62
(dp4420
sg71
g3441
sg64
(lp4421
g57
(g78
g59
NtRp4422
(dp4423
g62
(dp4424
g82
g83
ssg71
g4418
sg64
(lp4425
S'session_id'
p4426
asbag57
(g78
g59
NtRp4427
(dp4428
g62
(dp4429
g89
g90
ssg71
g4418
sg64
(lp4430
S':'
asbag57
(g78
g59
NtRp4431
(dp4432
g62
(dp4433
sg71
g4418
sg64
(lp4434
g57
(g58
g59
NtRp4435
(dp4436
g62
(dp4437
g70
I5
ssg71
g4431
sg64
(lp4438
S'127.0.0.1-0f635432-6687-421f-a06a-9fc402d47a2b'
p4439
asbasbasbag57
(g73
g59
NtRp4440
(dp4441
g62
(dp4442
sg71
g3441
sg64
(lp4443
g57
(g78
g59
NtRp4444
(dp4445
g62
(dp4446
g82
g83
ssg71
g4440
sg64
(lp4447
S'session_id_name'
p4448
asbag57
(g78
g59
NtRp4449
(dp4450
g62
(dp4451
g89
g90
ssg71
g4440
sg64
(lp4452
S':'
asbag57
(g78
g59
NtRp4453
(dp4454
g62
(dp4455
sg71
g4440
sg64
(lp4456
g57
(g58
g59
NtRp4457
(dp4458
g62
(dp4459
g70
I5
ssg71
g4453
sg64
(lp4460
g3498
asbasbasbag57
(g73
g59
NtRp4461
(dp4462
g62
(dp4463
sg71
g3441
sg64
(lp4464
g57
(g78
g59
NtRp4465
(dp4466
g62
(dp4467
g82
g83
ssg71
g4461
sg64
(lp4468
S'session_locked'
p4469
asbag57
(g78
g59
NtRp4470
(dp4471
g62
(dp4472
g89
g90
ssg71
g4461
sg64
(lp4473
S':'
asbag57
(g78
g59
NtRp4474
(dp4475
g62
(dp4476
sg71
g4461
sg64
(lp4477
g57
(g58
g59
NtRp4478
(dp4479
g62
(dp4480
g70
I5
ssg71
g4474
sg64
(lp4481
g1668
asbasbasbag57
(g73
g59
NtRp4482
(dp4483
g62
(dp4484
sg71
g3441
sg64
(lp4485
g57
(g78
g59
NtRp4486
(dp4487
g62
(dp4488
g82
g83
ssg71
g4482
sg64
(lp4489
S'session_new'
p4490
asbag57
(g78
g59
NtRp4491
(dp4492
g62
(dp4493
g89
g90
ssg71
g4482
sg64
(lp4494
S':'
asbag57
(g78
g59
NtRp4495
(dp4496
g62
(dp4497
sg71
g4482
sg64
(lp4498
g57
(g58
g59
NtRp4499
(dp4500
g62
(dp4501
g70
I5
ssg71
g4495
sg64
(lp4502
g100
asbasbasbag57
(g73
g59
NtRp4503
(dp4504
g62
(dp4505
sg71
g3441
sg64
(lp4506
g57
(g78
g59
NtRp4507
(dp4508
g62
(dp4509
g82
g83
ssg71
g4503
sg64
(lp4510
S'status'
p4511
asbag57
(g78
g59
NtRp4512
(dp4513
g62
(dp4514
g89
g90
ssg71
g4503
sg64
(lp4515
S':'
asbag57
(g78
g59
NtRp4516
(dp4517
g62
(dp4518
sg71
g4503
sg64
(lp4519
g57
(g58
g59
NtRp4520
(dp4521
g62
(dp4522
g70
I5
ssg71
g4516
sg64
(lp4523
S'200'
p4524
asbasbasbag57
(g73
g59
NtRp4525
(dp4526
g62
(dp4527
sg71
g3441
sg64
(lp4528
g57
(g78
g59
NtRp4529
(dp4530
g62
(dp4531
g82
g83
ssg71
g4525
sg64
(lp4532
S'subtitle'
p4533
asbag57
(g78
g59
NtRp4534
(dp4535
g62
(dp4536
g89
g90
ssg71
g4525
sg64
(lp4537
S':'
asbag57
(g78
g59
NtRp4538
(dp4539
g62
(dp4540
sg71
g4525
sg64
(lp4541
g57
(g58
g59
NtRp4542
(dp4543
g62
(dp4544
g70
I5
ssg71
g4538
sg64
(lp4545
g4101
(S's\r\x00\x00\x00customize me!'
tRp4546
asbasbasbag57
(g73
g59
NtRp4547
(dp4548
g62
(dp4549
sg71
g3441
sg64
(lp4550
g57
(g78
g59
NtRp4551
(dp4552
g62
(dp4553
g82
g83
ssg71
g4547
sg64
(lp4554
S'title'
p4555
asbag57
(g78
g59
NtRp4556
(dp4557
g62
(dp4558
g89
g90
ssg71
g4547
sg64
(lp4559
S':'
asbag57
(g78
g59
NtRp4560
(dp4561
g62
(dp4562
sg71
g4547
sg64
(lp4563
g57
(g58
g59
NtRp4564
(dp4565
g62
(dp4566
g70
I5
ssg71
g4560
sg64
(lp4567
S' '
asbasbasbag57
(g73
g59
NtRp4568
(dp4569
g62
(dp4570
sg71
g3441
sg64
(lp4571
g57
(g78
g59
NtRp4572
(dp4573
g62
(dp4574
g82
g83
ssg71
g4568
sg64
(lp4575
g2353
asbag57
(g78
g59
NtRp4576
(dp4577
g62
(dp4578
g89
g90
ssg71
g4568
sg64
(lp4579
S':'
asbag57
(g78
g59
NtRp4580
(dp4581
g62
(dp4582
sg71
g4568
sg64
(lp4583
g57
(g58
g59
NtRp4584
(dp4585
g62
(dp4586
g70
I5
ssg71
g4580
sg64
(lp4587
g2366
asbasbasbag57
(g73
g59
NtRp4588
(dp4589
g62
(dp4590
sg71
g3441
sg64
(lp4591
g57
(g78
g59
NtRp4592
(dp4593
g62
(dp4594
g82
g83
ssg71
g4588
sg64
(lp4595
S'view'
p4596
asbag57
(g78
g59
NtRp4597
(dp4598
g62
(dp4599
g89
g90
ssg71
g4588
sg64
(lp4600
S':'
asbag57
(g78
g59
NtRp4601
(dp4602
g62
(dp4603
sg71
g4588
sg64
(lp4604
g57
(g58
g59
NtRp4605
(dp4606
g62
(dp4607
g70
I5
ssg71
g4601
sg64
(lp4608
S'default/picture.html'
p4609
asbasbasbasbasbsS'locals'
p4610
(dp4611
S'Service'
p4612
S"<class 'gluon.tools.Service'>"
p4613
sS'OBJECT'
p4614
S"<class 'gluon.html.OBJECT'>"
p4615
sS'SQLDB'
p4616
S"<class 'gluon.dal.DAL'>"
p4617
sg3047
S"<Storage {'last_query': 'db.comments.id>0', '_fo...reate]': '51f407e9-6f47-41fc-a9d4-07ad2150b034'}>"
p4618
sS'LINK'
p4619
S"<class 'gluon.html.LINK'>"
p4620
sS'BR'
p4621
S"<class 'gluon.html.BR'>"
p4622
sS'local_import'
p4623
S'<function <lambda>>'
p4624
sS'OPTGROUP'
p4625
S"<class 'gluon.html.OPTGROUP'>"
p4626
sS'__package__'
p4627
S'None'
p4628
sS'PRE'
p4629
S"<class 'gluon.html.PRE'>"
p4630
sS'IS_INT_IN_RANGE'
p4631
S"<class 'gluon.validators.IS_INT_IN_RANGE'>"
p4632
sS'left_sidebar_enabled'
p4633
g100
sS'IS_LOWER'
p4634
S"<class 'gluon.validators.IS_LOWER'>"
p4635
sS'IS_STRONG'
p4636
S"<class 'gluon.validators.IS_STRONG'>"
p4637
sS'cache'
p4638
S'<gluon.cache.Cache object>'
p4639
sS'IS_IN_DB'
p4640
S"<class 'gluon.validators.IS_IN_DB'>"
p4641
sS'TAG'
p4642
S'<gluon.html.__TAG__ object>'
p4643
sS'SQLField'
p4644
S"<class 'gluon.dal.Field'>"
p4645
sS'mail'
p4646
S'<gluon.tools.Mail object>'
p4647
sS'BODY'
p4648
S"<class 'gluon.html.BODY'>"
p4649
sS'IS_DATE_IN_RANGE'
p4650
S"<class 'gluon.validators.IS_DATE_IN_RANGE'>"
p4651
sS'TH'
p4652
S"<class 'gluon.html.TH'>"
p4653
sS'URL'
p4654
S'<function URL>'
p4655
sS'__file__'
p4656
S"'/home/anu/Desktop/M12/ssad m12/web2py/applications/PhotoUpload/views/default/picture.html'"
p4657
sS'db'
p4658
S"<DAL {'auth_event': <Table {'origin': <gluon.dal..._key': <gluon.dal.Field object at 0xaf5a182c>}>}>"
p4659
sS'auth'
p4660
S'<gluon.tools.Auth object>'
p4661
sS'P'
S"<class 'gluon.html.P'>"
p4662
sS'TFOOT'
p4663
S"<class 'gluon.html.TFOOT'>"
p4664
sS'XHTML'
p4665
S"<class 'gluon.html.XHTML'>"
p4666
sS'ON'
p4667
g1668
sS'OL'
p4668
S"<class 'gluon.html.OL'>"
p4669
sS'TEXTAREA'
p4670
S"<class 'gluon.html.TEXTAREA'>"
p4671
sS'MENU'
p4672
S"<class 'gluon.html.MENU'>"
p4673
sS'l'
S'<gluon.dal.Rows object>'
p4674
sS'p'
S"<Row {'title': 'one', 'update_record': <function...lete_record': <function <lambda> at 0xaf5b0cdc>}>"
p4675
sS'LOAD'
p4676
S'<function LOAD>'
p4677
sS'CODE'
p4678
S"<class 'gluon.html.CODE'>"
p4679
sS'HTTP'
p4680
S"<class 'gluon.http.HTTP'>"
p4681
sS'HR'
p4682
S"<class 'gluon.html.HR'>"
p4683
sS'IS_DATETIME'
p4684
S"<class 'gluon.validators.IS_DATETIME'>"
p4685
sS'HEAD'
p4686
S"<class 'gluon.html.HEAD'>"
p4687
sS'LABEL'
p4688
S"<class 'gluon.html.LABEL'>"
p4689
sS'META'
p4690
S"<class 'gluon.html.META'>"
p4691
sS'plugins'
p4692
S'<gluon.tools.PluginManager object>'
p4693
sS'SELECT'
p4694
S"<class 'gluon.html.SELECT'>"
p4695
sS'use_janrain'
p4696
S'<function use_janrain>'
p4697
sS'CENTER'
p4698
S"<class 'gluon.html.CENTER'>"
p4699
sS'prettydate'
p4700
S'<function prettydate>'
p4701
sS'Crud'
p4702
S"<class 'gluon.tools.Crud'>"
p4703
sS'Auth'
p4704
S"<class 'gluon.tools.Auth'>"
p4705
sS'__builtins__'
p4706
S"{'ArithmeticError': <type 'exceptions.ArithmeticError'>, 'AssertionError': <type 'exceptions.AssertionError'>, 'AttributeError': <type 'exceptions.AttributeError'>, 'BaseException': <type 'exceptions.BaseException'>, 'BufferError': <type 'exceptions.BufferError'>, 'BytesWarning': <type 'exceptions.BytesWarning'>, 'DeprecationWarning': <type 'exceptions.DeprecationWarning'>, 'EOFError': <type 'exceptions.EOFError'>, 'Ellipsis': Ellipsis, 'EnvironmentError': <type 'exceptions.EnvironmentError'>, ...}"
p4707
sS'HTML'
p4708
S"<class 'gluon.html.HTML'>"
p4709
sS'SQLFORM'
p4710
S"<class 'gluon.sqlhtml.SQLFORM'>"
p4711
sS'EM'
p4712
S"<class 'gluon.html.EM'>"
p4713
sS'redirect'
p4714
S'<function redirect>'
p4715
sS'FIELDSET'
p4716
S"<class 'gluon.html.FIELDSET'>"
p4717
sS'IS_EQUAL_TO'
p4718
S"<class 'gluon.validators.IS_EQUAL_TO'>"
p4719
sS'embed64'
p4720
S'<function embed64>'
p4721
sS'IS_LIST_OF'
p4722
S"<class 'gluon.validators.IS_LIST_OF'>"
p4723
sS'__name__'
p4724
S"'__restricted__'"
p4725
sS'EMBED'
p4726
S"<class 'gluon.html.EMBED'>"
p4727
sS'_'
S'<function _>'
p4728
sS'FORM'
p4729
S"<class 'gluon.html.FORM'>"
p4730
sS'c'
S'<gluon.dal.Rows object>'
p4731
sS'CLEANUP'
p4732
S"<class 'gluon.validators.CLEANUP'>"
p4733
sS'H2'
p4734
S"<class 'gluon.html.H2'>"
p4735
sS'H3'
p4736
S"<class 'gluon.html.H3'>"
p4737
sS'BUTTON'
p4738
S"<class 'gluon.html.BUTTON'>"
p4739
sS'H1'
p4740
S"<class 'gluon.html.H1'>"
p4741
sS'H6'
p4742
S"<class 'gluon.html.H6'>"
p4743
sS'H4'
p4744
S"<class 'gluon.html.H4'>"
p4745
sS'H5'
p4746
S"<class 'gluon.html.H5'>"
p4747
sS'UL'
p4748
S"<class 'gluon.html.UL'>"
p4749
sS'IS_UPPER'
p4750
S"<class 'gluon.validators.IS_UPPER'>"
p4751
sS'xmlescape'
p4752
S'<function xmlescape>'
p4753
sS'IS_TIME'
p4754
S"<class 'gluon.validators.IS_TIME'>"
p4755
sS'OPTION'
p4756
S"<class 'gluon.html.OPTION'>"
p4757
sS'TITLE'
p4758
S"<class 'gluon.html.TITLE'>"
p4759
sS'CRYPT'
p4760
S"<class 'gluon.validators.CRYPT'>"
p4761
sS'IS_EMPTY_OR'
p4762
S"<class 'gluon.validators.IS_EMPTY_OR'>"
p4763
sS'MARKMIN'
p4764
S"<class 'gluon.html.MARKMIN'>"
p4765
sS'INPUT'
p4766
S"<class 'gluon.html.INPUT'>"
p4767
sS'COL'
p4768
S"<class 'gluon.html.COL'>"
p4769
sS'service'
p4770
S'<gluon.tools.Service object>'
p4771
sS'SCRIPT'
p4772
S"<class 'gluon.html.SCRIPT'>"
p4773
sS'is_mobile'
p4774
g100
sS'TABLE'
p4775
S"<class 'gluon.html.TABLE'>"
p4776
sS'IS_IPV4'
p4777
S"<class 'gluon.validators.IS_IPV4'>"
p4778
sS'IS_LENGTH'
p4779
S"<class 'gluon.validators.IS_LENGTH'>"
p4780
sS'XML'
p4781
S"<class 'gluon.html.XML'>"
p4782
sS'B'
S"<class 'gluon.html.B'>"
p4783
sS'IMG'
p4784
S"<class 'gluon.html.IMG'>"
p4785
sS'SQLTABLE'
p4786
S"<class 'gluon.sqlhtml.SQLTABLE'>"
p4787
sS'IS_MATCH'
p4788
S"<class 'gluon.validators.IS_MATCH'>"
p4789
sS'IS_ALPHANUMERIC'
p4790
S"<class 'gluon.validators.IS_ALPHANUMERIC'>"
p4791
sS'SPAN'
p4792
S"<class 'gluon.html.SPAN'>"
p4793
sS'IS_SLUG'
p4794
S"<class 'gluon.validators.IS_SLUG'>"
p4795
sS'BEAUTIFY'
p4796
S"<class 'gluon.html.BEAUTIFY'>"
p4797
sS'IS_DATE'
p4798
S"<class 'gluon.validators.IS_DATE'>"
p4799
sS'IS_EMAIL'
p4800
S"<class 'gluon.validators.IS_EMAIL'>"
p4801
sS'IS_NOT_EMPTY'
p4802
S"<class 'gluon.validators.IS_NOT_EMPTY'>"
p4803
sS'IS_FLOAT_IN_RANGE'
p4804
S"<class 'gluon.validators.IS_FLOAT_IN_RANGE'>"
p4805
sS'TBODY'
p4806
S"<class 'gluon.html.TBODY'>"
p4807
sS'CAT'
p4808
S"<class 'gluon.html.CAT'>"
p4809
sS'Field'
p4810
S"<class 'gluon.dal.Field'>"
p4811
sS'middle_columns'
p4812
S"'sixteen'"
p4813
sS'DIV'
p4814
S"<class 'gluon.html.DIV'>"
p4815
sS'LEGEND'
p4816
S"<class 'gluon.html.LEGEND'>"
p4817
sS'COLGROUP'
p4818
S"<class 'gluon.html.COLGROUP'>"
p4819
sS'DAL'
p4820
S"<class 'gluon.dal.DAL'>"
p4821
sS'TT'
p4822
S"<class 'gluon.html.TT'>"
p4823
sS'TR'
p4824
S"<class 'gluon.html.TR'>"
p4825
sS'LI'
p4826
S"<class 'gluon.html.LI'>"
p4827
sS'right_sidebar_enabled'
p4828
g100
sS'IFRAME'
p4829
S"<class 'gluon.html.IFRAME'>"
p4830
sS'TD'
p4831
S"<class 'gluon.html.TD'>"
p4832
sS'PluginManager'
p4833
S"<class 'gluon.tools.PluginManager'>"
p4834
sS'IS_URL'
p4835
S"<class 'gluon.validators.IS_URL'>"
p4836
sS'A'
S"<class 'gluon.html.A'>"
p4837
sS'STYLE'
p4838
S"<class 'gluon.html.STYLE'>"
p4839
sS'IS_DATETIME_IN_RANGE'
p4840
S"<class 'gluon.validators.IS_DATETIME_IN_RANGE'>"
p4841
sS'IS_IMAGE'
p4842
S"<class 'gluon.validators.IS_IMAGE'>"
p4843
sS'I'
S"<class 'gluon.html.I'>"
p4844
sS'crud'
p4845
S'<gluon.tools.Crud object>'
p4846
sS'IS_NOT_IN_DB'
p4847
S"<class 'gluon.validators.IS_NOT_IN_DB'>"
p4848
sg3436
S"<Storage {'body': <cStringIO.StringO object at 0... at 0xaf5b010c>, 'view': 'default/picture.html'}>"
p4849
sS'THEAD'
p4850
S"<class 'gluon.html.THEAD'>"
p4851
sS'IS_NULL_OR'
p4852
S"<class 'gluon.validators.IS_EMPTY_OR'>"
p4853
sg56
S"<Storage {'body': <cStringIO.StringO object at 0..._vars': <Storage {}>, 'post_vars': <Storage {}>}>"
p4854
sS'IS_EXPR'
p4855
S"<class 'gluon.validators.IS_EXPR'>"
p4856
sS'T'
S'<gluon.languages.translator object>'
p4857
sS'IS_IN_SET'
p4858
S"<class 'gluon.validators.IS_IN_SET'>"
p4859
sS'IS_UPLOAD_FILENAME'
p4860
S"<class 'gluon.validators.IS_UPLOAD_FILENAME'>"
p4861
sS'IS_DECIMAL_IN_RANGE'
p4862
S"<class 'gluon.validators.IS_DECIMAL_IN_RANGE'>"
p4863
sssS'traceback'
p4864
S'Traceback (most recent call last):\n  File "/home/anu/Desktop/M12/ssad m12/web2py/gluon/restricted.py", line 205, in restricted\n    exec ccode in environment\n  File "/home/anu/Desktop/M12/ssad m12/web2py/applications/PhotoUpload/views/default/picture.html", line 100, in <module>\nNameError: name \'comment\' is not defined\n'
p4865
s.