(dp1
S'output'
p2
S"<class 'sqlite3.OperationalError'> table like already exists"
p3
sS'layer'
p4
S'/home/anu/Desktop/M12/ssad m12/web2py/applications/PhotoUpload/models/db.py'
p5
sS'code'
p6
S"# -*- coding: utf-8 -*-\n\n#########################################################################\n## This scaffolding model makes your app work on Google App Engine too\n## File is released under public domain and you can use without limitations\n#########################################################################\n\n## if SSL/HTTPS is properly configured and you want all HTTP requests to\n## be redirected to HTTPS, uncomment the line below:\n# request.requires_https()\n\nif not request.env.web2py_runtime_gae:\n    ## if NOT running on Google App Engine use SQLite or other DB\n    db = DAL('sqlite://storage.sqlite')\nelse:\n    ## connect to Google BigTable (optional 'google:datastore://namespace')\n    db = DAL('google:datastore')\n    ## store sessions and tickets there\n    session.connect(request, response, db = db)\n    ## or store session in Memcache, Redis, etc.\n    ## from gluon.contrib.memdb import MEMDB\n    ## from google.appengine.api.memcache import Client\n    ## session.connect(request, response, db = MEMDB(Client()))\n\n## by default give a view/generic.extension to all actions from localhost\n## none otherwise. a pattern can be 'controller/function.extension'\nresponse.generic_patterns = ['*'] if request.is_local else []\n## (optional) optimize handling of static files\n# response.optimize_css = 'concat,minify,inline'\n# response.optimize_js = 'concat,minify,inline'\n\n#########################################################################\n## Here is sample code if you need for\n## - email capabilities\n## - authentication (registration, login, logout, ... )\n## - authorization (role based authorization)\n## - services (xml, csv, json, xmlrpc, jsonrpc, amf, rss)\n## - old style crud actions\n## (more options discussed in gluon/tools.py)\n#########################################################################\n\nfrom gluon.tools import Auth, Crud, Service, PluginManager, prettydate\nauth = Auth(db, hmac_key=Auth.get_or_create_key())\ncrud, service, plugins = Crud(db), Service(), PluginManager()\n\n## create all tables needed by auth if not custom tables\nauth.define_tables()\n\n## configure email\nmail=auth.settings.mailer\nmail.settings.server = 'logging' or 'smtp.gmail.com:587'\nmail.settings.sender = 'you@gmail.com'\nmail.settings.login = 'username:password'\n\n## configure auth policy\nauth.settings.registration_requires_verification = False\nauth.settings.registration_requires_approval = False\nauth.settings.reset_password_requires_verification = True\n\n## if you need to use OpenID, Facebook, MySpace, Twitter, Linkedin, etc.\n## register with janrain.com, write your domain:api_key in private/janrain.key\nfrom gluon.contrib.login_methods.rpx_account import use_janrain\nuse_janrain(auth,filename='private/janrain.key')\n\n#########################################################################\n## Define your tables below (or better in another model file) for example\n##\n## >>> db.define_table('mytable',Field('myfield','string'))\n##\n## Fields can be 'string','text','password','integer','double','boolean'\n##       'date','time','datetime','blob','upload', 'reference TABLENAME'\n## There is an implicit 'id integer autoincrement' field\n## Consult manual for more options, validators, etc.\n##\n## More API examples for controllers:\n##\n## >>> db.mytable.insert(myfield='value')\n## >>> rows=db(db.mytable.myfield=='value').select(db.mytable.ALL)\n## >>> for row in rows: print row.id, row.myfield\n#########################################################################\n\ndb.define_table('pictures',\n    Field('title'),\n    Field('date','date',readable=False,writable=False),\n    Field('image','upload'))    \n    \ndb.define_table('comments',\n    Field('pId',db.pictures,requires=IS_IN_DB(db,'pictures.id','pictures.title')),\n    Field('uId',db.auth_user,requires=IS_IN_DB(db,'auth_user.id','auth_user.first_name')),\n    Field('comment_time'),\n    Field('comment')\n    )\n    \ndb.define_table('likes',\n    Field('pId',db.pictures,requires=IS_IN_DB(db,'pictures.id','pictures.title')),\n    Field('uId',db.auth_user,requires=IS_IN_DB(db,'auth_user.id','auth_user.first_name'))\n    )\n    \ndb.define_table('like',Field('Like') )\ndb.define_table('commentt',Field('Comment') )\n"
p7
sS'snapshot'
p8
(dp9
S'exception'
p10
(dp11
S'__module__'
p12
S"'sqlite3'"
p13
sS'__getslice__'
p14
S"<method-wrapper '__getslice__' of OperationalError object>"
p15
sS'__str__'
p16
S"<method-wrapper '__str__' of OperationalError object>"
p17
sS'__reduce__'
p18
S'<built-in method __reduce__ of OperationalError object>'
p19
sS'__dict__'
p20
S'{}'
p21
sS'__sizeof__'
p22
S'<built-in method __sizeof__ of OperationalError object>'
p23
sS'__weakref__'
p24
S'None'
p25
sS'__init__'
p26
S"<method-wrapper '__init__' of OperationalError object>"
p27
sS'__setattr__'
p28
S"<method-wrapper '__setattr__' of OperationalError object>"
p29
sS'__reduce_ex__'
p30
S'<built-in method __reduce_ex__ of OperationalError object>'
p31
sS'__new__'
p32
S'<built-in method __new__ of type object>'
p33
sS'__format__'
p34
S'<built-in method __format__ of OperationalError object>'
p35
sS'__class__'
p36
S"<class 'sqlite3.OperationalError'>"
p37
sS'__doc__'
p38
S'None'
p39
sS'__getitem__'
p40
S"<method-wrapper '__getitem__' of OperationalError object>"
p41
sS'__setstate__'
p42
S'<built-in method __setstate__ of OperationalError object>'
p43
sS'__getattribute__'
p44
S"<method-wrapper '__getattribute__' of OperationalError object>"
p45
sS'args'
p46
S"('table like already exists',)"
p47
sS'__subclasshook__'
p48
S'<built-in method __subclasshook__ of type object>'
p49
sS'__unicode__'
p50
S'<built-in method __unicode__ of OperationalError object>'
p51
sS'__delattr__'
p52
S"<method-wrapper '__delattr__' of OperationalError object>"
p53
sS'__repr__'
p54
S"<method-wrapper '__repr__' of OperationalError object>"
p55
sS'__hash__'
p56
S"<method-wrapper '__hash__' of OperationalError object>"
p57
ssS'evalue'
p58
S'table like already exists'
p59
sS'request'
p60
ccopy_reg
_reconstructor
p61
(cgluon.html
BEAUTIFY
p62
c__builtin__
object
p63
NtRp64
(dp65
S'attributes'
p66
(dp67
sS'components'
p68
(lp69
g61
(cgluon.html
TABLE
p70
g63
NtRp71
(dp72
g66
(dp73
S'level'
p74
I5
ssS'parent'
p75
Nsg68
(lp76
g61
(cgluon.html
TR
p77
g63
NtRp78
(dp79
g66
(dp80
sg75
g71
sg68
(lp81
g61
(cgluon.html
TD
p82
g63
NtRp83
(dp84
g66
(dp85
S'_style'
p86
S'font-weight:bold;vertical-align:top'
p87
ssg75
g78
sg68
(lp88
S'ajax'
p89
asbag61
(g82
g63
NtRp90
(dp91
g66
(dp92
S'_valign'
p93
S'top'
p94
ssg75
g78
sg68
(lp95
S':'
asbag61
(g82
g63
NtRp96
(dp97
g66
(dp98
sg75
g78
sg68
(lp99
g61
(g62
g63
NtRp100
(dp101
g66
(dp102
g74
I5
ssg75
g96
sg68
(lp103
S'False'
p104
asbasbasbag61
(g77
g63
NtRp105
(dp106
g66
(dp107
sg75
g71
sg68
(lp108
g61
(g82
g63
NtRp109
(dp110
g66
(dp111
g86
g87
ssg75
g105
sg68
(lp112
S'application'
p113
asbag61
(g82
g63
NtRp114
(dp115
g66
(dp116
g93
g94
ssg75
g105
sg68
(lp117
S':'
asbag61
(g82
g63
NtRp118
(dp119
g66
(dp120
sg75
g105
sg68
(lp121
g61
(g62
g63
NtRp122
(dp123
g66
(dp124
g74
I5
ssg75
g118
sg68
(lp125
S'PhotoUpload'
p126
asbasbasbag61
(g77
g63
NtRp127
(dp128
g66
(dp129
sg75
g71
sg68
(lp130
g61
(g82
g63
NtRp131
(dp132
g66
(dp133
g86
g87
ssg75
g127
sg68
(lp134
g46
asbag61
(g82
g63
NtRp135
(dp136
g66
(dp137
g93
g94
ssg75
g127
sg68
(lp138
S':'
asbag61
(g82
g63
NtRp139
(dp140
g66
(dp141
sg75
g127
sg68
(lp142
g61
(g62
g63
NtRp143
(dp144
g66
(dp145
g74
I5
ssg75
g139
sg68
(lp146
g61
(g70
g63
NtRp147
(dp148
g66
(dp149
g74
I4
ssg75
Nsg68
(lp150
sbasbasbasbag61
(g77
g63
NtRp151
(dp152
g66
(dp153
sg75
g71
sg68
(lp154
g61
(g82
g63
NtRp155
(dp156
g66
(dp157
g86
g87
ssg75
g151
sg68
(lp158
S'body'
p159
asbag61
(g82
g63
NtRp160
(dp161
g66
(dp162
g93
g94
ssg75
g151
sg68
(lp163
S':'
asbag61
(g82
g63
NtRp164
(dp165
g66
(dp166
sg75
g151
sg68
(lp167
g61
(g62
g63
NtRp168
(dp169
g66
(dp170
g74
I5
ssg75
g164
sg68
(lp171
S'<cStringIO.StringO object at 0x93ef780>'
p172
asbasbasbag61
(g77
g63
NtRp173
(dp174
g66
(dp175
sg75
g71
sg68
(lp176
g61
(g82
g63
NtRp177
(dp178
g66
(dp179
g86
g87
ssg75
g173
sg68
(lp180
S'client'
p181
asbag61
(g82
g63
NtRp182
(dp183
g66
(dp184
g93
g94
ssg75
g173
sg68
(lp185
S':'
asbag61
(g82
g63
NtRp186
(dp187
g66
(dp188
sg75
g173
sg68
(lp189
g61
(g62
g63
NtRp190
(dp191
g66
(dp192
g74
I5
ssg75
g186
sg68
(lp193
S'127.0.0.1'
p194
asbasbasbag61
(g77
g63
NtRp195
(dp196
g66
(dp197
sg75
g71
sg68
(lp198
g61
(g82
g63
NtRp199
(dp200
g66
(dp201
g86
g87
ssg75
g195
sg68
(lp202
S'controller'
p203
asbag61
(g82
g63
NtRp204
(dp205
g66
(dp206
g93
g94
ssg75
g195
sg68
(lp207
S':'
asbag61
(g82
g63
NtRp208
(dp209
g66
(dp210
sg75
g195
sg68
(lp211
g61
(g62
g63
NtRp212
(dp213
g66
(dp214
g74
I5
ssg75
g208
sg68
(lp215
S'default'
p216
asbasbasbag61
(g77
g63
NtRp217
(dp218
g66
(dp219
sg75
g71
sg68
(lp220
g61
(g82
g63
NtRp221
(dp222
g66
(dp223
g86
g87
ssg75
g217
sg68
(lp224
S'cookies'
p225
asbag61
(g82
g63
NtRp226
(dp227
g66
(dp228
g93
g94
ssg75
g217
sg68
(lp229
S':'
asbag61
(g82
g63
NtRp230
(dp231
g66
(dp232
sg75
g217
sg68
(lp233
g61
(g62
g63
NtRp234
(dp235
g66
(dp236
g74
I5
ssg75
g230
sg68
(lp237
g61
(g70
g63
NtRp238
(dp239
g66
(dp240
g74
I4
ssg75
Nsg68
(lp241
g61
(g77
g63
NtRp242
(dp243
g66
(dp244
sg75
g238
sg68
(lp245
g61
(g82
g63
NtRp246
(dp247
g66
(dp248
g86
g87
ssg75
g242
sg68
(lp249
S'session_id_admin'
p250
asbag61
(g82
g63
NtRp251
(dp252
g66
(dp253
g93
g94
ssg75
g242
sg68
(lp254
S':'
asbag61
(g82
g63
NtRp255
(dp256
g66
(dp257
sg75
g242
sg68
(lp258
g61
(g62
g63
NtRp259
(dp260
g66
(dp261
g74
I4
ssg75
g255
sg68
(lp262
g61
(g70
g63
NtRp263
(dp264
g66
(dp265
g74
I3
ssg75
Nsg68
(lp266
g61
(g77
g63
NtRp267
(dp268
g66
(dp269
sg75
g263
sg68
(lp270
g61
(g82
g63
NtRp271
(dp272
g66
(dp273
g86
g87
ssg75
g267
sg68
(lp274
S'comment'
p275
asbag61
(g82
g63
NtRp276
(dp277
g66
(dp278
g93
g94
ssg75
g267
sg68
(lp279
S':'
asbag61
(g82
g63
NtRp280
(dp281
g66
(dp282
sg75
g267
sg68
(lp283
g61
(g62
g63
NtRp284
(dp285
g66
(dp286
g74
I3
ssg75
g280
sg68
(lp287
S''
asbasbasbag61
(g77
g63
NtRp288
(dp289
g66
(dp290
sg75
g263
sg68
(lp291
g61
(g82
g63
NtRp292
(dp293
g66
(dp294
g86
g87
ssg75
g288
sg68
(lp295
S'domain'
p296
asbag61
(g82
g63
NtRp297
(dp298
g66
(dp299
g93
g94
ssg75
g288
sg68
(lp300
S':'
asbag61
(g82
g63
NtRp301
(dp302
g66
(dp303
sg75
g288
sg68
(lp304
g61
(g62
g63
NtRp305
(dp306
g66
(dp307
g74
I3
ssg75
g301
sg68
(lp308
S''
asbasbasbag61
(g77
g63
NtRp309
(dp310
g66
(dp311
sg75
g263
sg68
(lp312
g61
(g82
g63
NtRp313
(dp314
g66
(dp315
g86
g87
ssg75
g309
sg68
(lp316
S'expires'
p317
asbag61
(g82
g63
NtRp318
(dp319
g66
(dp320
g93
g94
ssg75
g309
sg68
(lp321
S':'
asbag61
(g82
g63
NtRp322
(dp323
g66
(dp324
sg75
g309
sg68
(lp325
g61
(g62
g63
NtRp326
(dp327
g66
(dp328
g74
I3
ssg75
g322
sg68
(lp329
S''
asbasbasbag61
(g77
g63
NtRp330
(dp331
g66
(dp332
sg75
g263
sg68
(lp333
g61
(g82
g63
NtRp334
(dp335
g66
(dp336
g86
g87
ssg75
g330
sg68
(lp337
S'httponly'
p338
asbag61
(g82
g63
NtRp339
(dp340
g66
(dp341
g93
g94
ssg75
g330
sg68
(lp342
S':'
asbag61
(g82
g63
NtRp343
(dp344
g66
(dp345
sg75
g330
sg68
(lp346
g61
(g62
g63
NtRp347
(dp348
g66
(dp349
g74
I3
ssg75
g343
sg68
(lp350
S''
asbasbasbag61
(g77
g63
NtRp351
(dp352
g66
(dp353
sg75
g263
sg68
(lp354
g61
(g82
g63
NtRp355
(dp356
g66
(dp357
g86
g87
ssg75
g351
sg68
(lp358
S'max-age'
p359
asbag61
(g82
g63
NtRp360
(dp361
g66
(dp362
g93
g94
ssg75
g351
sg68
(lp363
S':'
asbag61
(g82
g63
NtRp364
(dp365
g66
(dp366
sg75
g351
sg68
(lp367
g61
(g62
g63
NtRp368
(dp369
g66
(dp370
g74
I3
ssg75
g364
sg68
(lp371
S''
asbasbasbag61
(g77
g63
NtRp372
(dp373
g66
(dp374
sg75
g263
sg68
(lp375
g61
(g82
g63
NtRp376
(dp377
g66
(dp378
g86
g87
ssg75
g372
sg68
(lp379
S'path'
p380
asbag61
(g82
g63
NtRp381
(dp382
g66
(dp383
g93
g94
ssg75
g372
sg68
(lp384
S':'
asbag61
(g82
g63
NtRp385
(dp386
g66
(dp387
sg75
g372
sg68
(lp388
g61
(g62
g63
NtRp389
(dp390
g66
(dp391
g74
I3
ssg75
g385
sg68
(lp392
S''
asbasbasbag61
(g77
g63
NtRp393
(dp394
g66
(dp395
sg75
g263
sg68
(lp396
g61
(g82
g63
NtRp397
(dp398
g66
(dp399
g86
g87
ssg75
g393
sg68
(lp400
S'secure'
p401
asbag61
(g82
g63
NtRp402
(dp403
g66
(dp404
g93
g94
ssg75
g393
sg68
(lp405
S':'
asbag61
(g82
g63
NtRp406
(dp407
g66
(dp408
sg75
g393
sg68
(lp409
g61
(g62
g63
NtRp410
(dp411
g66
(dp412
g74
I3
ssg75
g406
sg68
(lp413
S''
asbasbasbag61
(g77
g63
NtRp414
(dp415
g66
(dp416
sg75
g263
sg68
(lp417
g61
(g82
g63
NtRp418
(dp419
g66
(dp420
g86
g87
ssg75
g414
sg68
(lp421
S'version'
p422
asbag61
(g82
g63
NtRp423
(dp424
g66
(dp425
g93
g94
ssg75
g414
sg68
(lp426
S':'
asbag61
(g82
g63
NtRp427
(dp428
g66
(dp429
sg75
g414
sg68
(lp430
g61
(g62
g63
NtRp431
(dp432
g66
(dp433
g74
I3
ssg75
g427
sg68
(lp434
S''
asbasbasbasbasbasbasbag61
(g77
g63
NtRp435
(dp436
g66
(dp437
sg75
g238
sg68
(lp438
g61
(g82
g63
NtRp439
(dp440
g66
(dp441
g86
g87
ssg75
g435
sg68
(lp442
S'session_id_photoupload'
p443
asbag61
(g82
g63
NtRp444
(dp445
g66
(dp446
g93
g94
ssg75
g435
sg68
(lp447
S':'
asbag61
(g82
g63
NtRp448
(dp449
g66
(dp450
sg75
g435
sg68
(lp451
g61
(g62
g63
NtRp452
(dp453
g66
(dp454
g74
I4
ssg75
g448
sg68
(lp455
g61
(g70
g63
NtRp456
(dp457
g66
(dp458
g74
I3
ssg75
Nsg68
(lp459
g61
(g77
g63
NtRp460
(dp461
g66
(dp462
sg75
g456
sg68
(lp463
g61
(g82
g63
NtRp464
(dp465
g66
(dp466
g86
g87
ssg75
g460
sg68
(lp467
g275
asbag61
(g82
g63
NtRp468
(dp469
g66
(dp470
g93
g94
ssg75
g460
sg68
(lp471
S':'
asbag61
(g82
g63
NtRp472
(dp473
g66
(dp474
sg75
g460
sg68
(lp475
g61
(g62
g63
NtRp476
(dp477
g66
(dp478
g74
I3
ssg75
g472
sg68
(lp479
S''
asbasbasbag61
(g77
g63
NtRp480
(dp481
g66
(dp482
sg75
g456
sg68
(lp483
g61
(g82
g63
NtRp484
(dp485
g66
(dp486
g86
g87
ssg75
g480
sg68
(lp487
g296
asbag61
(g82
g63
NtRp488
(dp489
g66
(dp490
g93
g94
ssg75
g480
sg68
(lp491
S':'
asbag61
(g82
g63
NtRp492
(dp493
g66
(dp494
sg75
g480
sg68
(lp495
g61
(g62
g63
NtRp496
(dp497
g66
(dp498
g74
I3
ssg75
g492
sg68
(lp499
S''
asbasbasbag61
(g77
g63
NtRp500
(dp501
g66
(dp502
sg75
g456
sg68
(lp503
g61
(g82
g63
NtRp504
(dp505
g66
(dp506
g86
g87
ssg75
g500
sg68
(lp507
g317
asbag61
(g82
g63
NtRp508
(dp509
g66
(dp510
g93
g94
ssg75
g500
sg68
(lp511
S':'
asbag61
(g82
g63
NtRp512
(dp513
g66
(dp514
sg75
g500
sg68
(lp515
g61
(g62
g63
NtRp516
(dp517
g66
(dp518
g74
I3
ssg75
g512
sg68
(lp519
S''
asbasbasbag61
(g77
g63
NtRp520
(dp521
g66
(dp522
sg75
g456
sg68
(lp523
g61
(g82
g63
NtRp524
(dp525
g66
(dp526
g86
g87
ssg75
g520
sg68
(lp527
g338
asbag61
(g82
g63
NtRp528
(dp529
g66
(dp530
g93
g94
ssg75
g520
sg68
(lp531
S':'
asbag61
(g82
g63
NtRp532
(dp533
g66
(dp534
sg75
g520
sg68
(lp535
g61
(g62
g63
NtRp536
(dp537
g66
(dp538
g74
I3
ssg75
g532
sg68
(lp539
S''
asbasbasbag61
(g77
g63
NtRp540
(dp541
g66
(dp542
sg75
g456
sg68
(lp543
g61
(g82
g63
NtRp544
(dp545
g66
(dp546
g86
g87
ssg75
g540
sg68
(lp547
g359
asbag61
(g82
g63
NtRp548
(dp549
g66
(dp550
g93
g94
ssg75
g540
sg68
(lp551
S':'
asbag61
(g82
g63
NtRp552
(dp553
g66
(dp554
sg75
g540
sg68
(lp555
g61
(g62
g63
NtRp556
(dp557
g66
(dp558
g74
I3
ssg75
g552
sg68
(lp559
S''
asbasbasbag61
(g77
g63
NtRp560
(dp561
g66
(dp562
sg75
g456
sg68
(lp563
g61
(g82
g63
NtRp564
(dp565
g66
(dp566
g86
g87
ssg75
g560
sg68
(lp567
g380
asbag61
(g82
g63
NtRp568
(dp569
g66
(dp570
g93
g94
ssg75
g560
sg68
(lp571
S':'
asbag61
(g82
g63
NtRp572
(dp573
g66
(dp574
sg75
g560
sg68
(lp575
g61
(g62
g63
NtRp576
(dp577
g66
(dp578
g74
I3
ssg75
g572
sg68
(lp579
S''
asbasbasbag61
(g77
g63
NtRp580
(dp581
g66
(dp582
sg75
g456
sg68
(lp583
g61
(g82
g63
NtRp584
(dp585
g66
(dp586
g86
g87
ssg75
g580
sg68
(lp587
g401
asbag61
(g82
g63
NtRp588
(dp589
g66
(dp590
g93
g94
ssg75
g580
sg68
(lp591
S':'
asbag61
(g82
g63
NtRp592
(dp593
g66
(dp594
sg75
g580
sg68
(lp595
g61
(g62
g63
NtRp596
(dp597
g66
(dp598
g74
I3
ssg75
g592
sg68
(lp599
S''
asbasbasbag61
(g77
g63
NtRp600
(dp601
g66
(dp602
sg75
g456
sg68
(lp603
g61
(g82
g63
NtRp604
(dp605
g66
(dp606
g86
g87
ssg75
g600
sg68
(lp607
g422
asbag61
(g82
g63
NtRp608
(dp609
g66
(dp610
g93
g94
ssg75
g600
sg68
(lp611
S':'
asbag61
(g82
g63
NtRp612
(dp613
g66
(dp614
sg75
g600
sg68
(lp615
g61
(g62
g63
NtRp616
(dp617
g66
(dp618
g74
I3
ssg75
g612
sg68
(lp619
S''
asbasbasbasbasbasbasbag61
(g77
g63
NtRp620
(dp621
g66
(dp622
sg75
g238
sg68
(lp623
g61
(g82
g63
NtRp624
(dp625
g66
(dp626
g86
g87
ssg75
g620
sg68
(lp627
S'session_id_welcome'
p628
asbag61
(g82
g63
NtRp629
(dp630
g66
(dp631
g93
g94
ssg75
g620
sg68
(lp632
S':'
asbag61
(g82
g63
NtRp633
(dp634
g66
(dp635
sg75
g620
sg68
(lp636
g61
(g62
g63
NtRp637
(dp638
g66
(dp639
g74
I4
ssg75
g633
sg68
(lp640
g61
(g70
g63
NtRp641
(dp642
g66
(dp643
g74
I3
ssg75
Nsg68
(lp644
g61
(g77
g63
NtRp645
(dp646
g66
(dp647
sg75
g641
sg68
(lp648
g61
(g82
g63
NtRp649
(dp650
g66
(dp651
g86
g87
ssg75
g645
sg68
(lp652
g275
asbag61
(g82
g63
NtRp653
(dp654
g66
(dp655
g93
g94
ssg75
g645
sg68
(lp656
S':'
asbag61
(g82
g63
NtRp657
(dp658
g66
(dp659
sg75
g645
sg68
(lp660
g61
(g62
g63
NtRp661
(dp662
g66
(dp663
g74
I3
ssg75
g657
sg68
(lp664
S''
asbasbasbag61
(g77
g63
NtRp665
(dp666
g66
(dp667
sg75
g641
sg68
(lp668
g61
(g82
g63
NtRp669
(dp670
g66
(dp671
g86
g87
ssg75
g665
sg68
(lp672
g296
asbag61
(g82
g63
NtRp673
(dp674
g66
(dp675
g93
g94
ssg75
g665
sg68
(lp676
S':'
asbag61
(g82
g63
NtRp677
(dp678
g66
(dp679
sg75
g665
sg68
(lp680
g61
(g62
g63
NtRp681
(dp682
g66
(dp683
g74
I3
ssg75
g677
sg68
(lp684
S''
asbasbasbag61
(g77
g63
NtRp685
(dp686
g66
(dp687
sg75
g641
sg68
(lp688
g61
(g82
g63
NtRp689
(dp690
g66
(dp691
g86
g87
ssg75
g685
sg68
(lp692
g317
asbag61
(g82
g63
NtRp693
(dp694
g66
(dp695
g93
g94
ssg75
g685
sg68
(lp696
S':'
asbag61
(g82
g63
NtRp697
(dp698
g66
(dp699
sg75
g685
sg68
(lp700
g61
(g62
g63
NtRp701
(dp702
g66
(dp703
g74
I3
ssg75
g697
sg68
(lp704
S''
asbasbasbag61
(g77
g63
NtRp705
(dp706
g66
(dp707
sg75
g641
sg68
(lp708
g61
(g82
g63
NtRp709
(dp710
g66
(dp711
g86
g87
ssg75
g705
sg68
(lp712
g338
asbag61
(g82
g63
NtRp713
(dp714
g66
(dp715
g93
g94
ssg75
g705
sg68
(lp716
S':'
asbag61
(g82
g63
NtRp717
(dp718
g66
(dp719
sg75
g705
sg68
(lp720
g61
(g62
g63
NtRp721
(dp722
g66
(dp723
g74
I3
ssg75
g717
sg68
(lp724
S''
asbasbasbag61
(g77
g63
NtRp725
(dp726
g66
(dp727
sg75
g641
sg68
(lp728
g61
(g82
g63
NtRp729
(dp730
g66
(dp731
g86
g87
ssg75
g725
sg68
(lp732
g359
asbag61
(g82
g63
NtRp733
(dp734
g66
(dp735
g93
g94
ssg75
g725
sg68
(lp736
S':'
asbag61
(g82
g63
NtRp737
(dp738
g66
(dp739
sg75
g725
sg68
(lp740
g61
(g62
g63
NtRp741
(dp742
g66
(dp743
g74
I3
ssg75
g737
sg68
(lp744
S''
asbasbasbag61
(g77
g63
NtRp745
(dp746
g66
(dp747
sg75
g641
sg68
(lp748
g61
(g82
g63
NtRp749
(dp750
g66
(dp751
g86
g87
ssg75
g745
sg68
(lp752
g380
asbag61
(g82
g63
NtRp753
(dp754
g66
(dp755
g93
g94
ssg75
g745
sg68
(lp756
S':'
asbag61
(g82
g63
NtRp757
(dp758
g66
(dp759
sg75
g745
sg68
(lp760
g61
(g62
g63
NtRp761
(dp762
g66
(dp763
g74
I3
ssg75
g757
sg68
(lp764
S''
asbasbasbag61
(g77
g63
NtRp765
(dp766
g66
(dp767
sg75
g641
sg68
(lp768
g61
(g82
g63
NtRp769
(dp770
g66
(dp771
g86
g87
ssg75
g765
sg68
(lp772
g401
asbag61
(g82
g63
NtRp773
(dp774
g66
(dp775
g93
g94
ssg75
g765
sg68
(lp776
S':'
asbag61
(g82
g63
NtRp777
(dp778
g66
(dp779
sg75
g765
sg68
(lp780
g61
(g62
g63
NtRp781
(dp782
g66
(dp783
g74
I3
ssg75
g777
sg68
(lp784
S''
asbasbasbag61
(g77
g63
NtRp785
(dp786
g66
(dp787
sg75
g641
sg68
(lp788
g61
(g82
g63
NtRp789
(dp790
g66
(dp791
g86
g87
ssg75
g785
sg68
(lp792
g422
asbag61
(g82
g63
NtRp793
(dp794
g66
(dp795
g93
g94
ssg75
g785
sg68
(lp796
S':'
asbag61
(g82
g63
NtRp797
(dp798
g66
(dp799
sg75
g785
sg68
(lp800
g61
(g62
g63
NtRp801
(dp802
g66
(dp803
g74
I3
ssg75
g797
sg68
(lp804
S''
asbasbasbasbasbasbasbasbasbasbasbag61
(g77
g63
NtRp805
(dp806
g66
(dp807
sg75
g71
sg68
(lp808
g61
(g82
g63
NtRp809
(dp810
g66
(dp811
g86
g87
ssg75
g805
sg68
(lp812
S'env'
p813
asbag61
(g82
g63
NtRp814
(dp815
g66
(dp816
g93
g94
ssg75
g805
sg68
(lp817
S':'
asbag61
(g82
g63
NtRp818
(dp819
g66
(dp820
sg75
g805
sg68
(lp821
g61
(g62
g63
NtRp822
(dp823
g66
(dp824
g74
I5
ssg75
g818
sg68
(lp825
g61
(g70
g63
NtRp826
(dp827
g66
(dp828
g74
I4
ssg75
Nsg68
(lp829
g61
(g77
g63
NtRp830
(dp831
g66
(dp832
sg75
g826
sg68
(lp833
g61
(g82
g63
NtRp834
(dp835
g66
(dp836
g86
g87
ssg75
g830
sg68
(lp837
S'app_folders'
p838
asbag61
(g82
g63
NtRp839
(dp840
g66
(dp841
g93
g94
ssg75
g830
sg68
(lp842
S':'
asbag61
(g82
g63
NtRp843
(dp844
g66
(dp845
sg75
g830
sg68
(lp846
g61
(g62
g63
NtRp847
(dp848
g66
(dp849
g74
I4
ssg75
g843
sg68
(lp850
S"set(['/home/anu/Desktop/M12/ssad m12/web2py/applications/PhotoUpload/', '/home/anu/Desktop/M12/ssad m12/web2py/applications/welcome/', '/home/anu/Desktop/M12/ssad m12/web2py/applications/admin/'])"
p851
asbasbasbag61
(g77
g63
NtRp852
(dp853
g66
(dp854
sg75
g826
sg68
(lp855
g61
(g82
g63
NtRp856
(dp857
g66
(dp858
g86
g87
ssg75
g852
sg68
(lp859
S'applications_parent'
p860
asbag61
(g82
g63
NtRp861
(dp862
g66
(dp863
g93
g94
ssg75
g852
sg68
(lp864
S':'
asbag61
(g82
g63
NtRp865
(dp866
g66
(dp867
sg75
g852
sg68
(lp868
g61
(g62
g63
NtRp869
(dp870
g66
(dp871
g74
I4
ssg75
g865
sg68
(lp872
S'/home/anu/Desktop/M12/ssad m12/web2py'
p873
asbasbasbag61
(g77
g63
NtRp874
(dp875
g66
(dp876
sg75
g826
sg68
(lp877
g61
(g82
g63
NtRp878
(dp879
g66
(dp880
g86
g87
ssg75
g874
sg68
(lp881
S'cmd_args'
p882
asbag61
(g82
g63
NtRp883
(dp884
g66
(dp885
g93
g94
ssg75
g874
sg68
(lp886
S':'
asbag61
(g82
g63
NtRp887
(dp888
g66
(dp889
sg75
g874
sg68
(lp890
g61
(g62
g63
NtRp891
(dp892
g66
(dp893
g74
I4
ssg75
g887
sg68
(lp894
g61
(g70
g63
NtRp895
(dp896
g66
(dp897
g74
I3
ssg75
Nsg68
(lp898
sbasbasbasbag61
(g77
g63
NtRp899
(dp900
g66
(dp901
sg75
g826
sg68
(lp902
g61
(g82
g63
NtRp903
(dp904
g66
(dp905
g86
g87
ssg75
g899
sg68
(lp906
S'cmd_options'
p907
asbag61
(g82
g63
NtRp908
(dp909
g66
(dp910
g93
g94
ssg75
g899
sg68
(lp911
S':'
asbag61
(g82
g63
NtRp912
(dp913
g66
(dp914
sg75
g899
sg68
(lp915
g61
(g62
g63
NtRp916
(dp917
g66
(dp918
g74
I4
ssg75
g912
sg68
(lp919
S"<Values at 0x92e784c: {'verbose': False, 'ip': '127.0.0.1', 'shutdown_timeout': 5, 'taskbar': False, 'nocron': False, 'pid_filename': 'httpserver.pid', 'maxthreads': None, 'softcron': False, 'server_name': 'COMPAQ', 'bpython': False, 'nogui': False, 'port': 8000, 'extcron': False, 'debuglevel': 30, 'test': None, 'folder': '/home/anu/Desktop/M12/ssad m12/web2py', 'config': '', 'import_models': False, 'winservice': '', 'shell': None, 'run': '', 'log_filename': 'httpserver.log', 'args': [''], 'socket_timeout': 5, 'ssl_ca_certificate': None, 'scheduler': None, 'profiler_filename': None, 'ssl_private_key': '', 'password': 'anu', 'request_queue_size': 5, 'ssl_certificate': '', 'cronjob': False, 'numthreads': None, 'quiet': False, 'interfaces': None, 'minthreads': None, 'timeout': 10, 'plain': False, 'nobanner': False}>"
p920
asbasbasbag61
(g77
g63
NtRp921
(dp922
g66
(dp923
sg75
g826
sg68
(lp924
g61
(g82
g63
NtRp925
(dp926
g66
(dp927
g86
g87
ssg75
g921
sg68
(lp928
S'db_sessions'
p929
asbag61
(g82
g63
NtRp930
(dp931
g66
(dp932
g93
g94
ssg75
g921
sg68
(lp933
S':'
asbag61
(g82
g63
NtRp934
(dp935
g66
(dp936
sg75
g921
sg68
(lp937
g61
(g62
g63
NtRp938
(dp939
g66
(dp940
g74
I4
ssg75
g934
sg68
(lp941
S'set([])'
p942
asbasbasbag61
(g77
g63
NtRp943
(dp944
g66
(dp945
sg75
g826
sg68
(lp946
g61
(g82
g63
NtRp947
(dp948
g66
(dp949
g86
g87
ssg75
g943
sg68
(lp950
S'debugging'
p951
asbag61
(g82
g63
NtRp952
(dp953
g66
(dp954
g93
g94
ssg75
g943
sg68
(lp955
S':'
asbag61
(g82
g63
NtRp956
(dp957
g66
(dp958
sg75
g943
sg68
(lp959
g61
(g62
g63
NtRp960
(dp961
g66
(dp962
g74
I4
ssg75
g956
sg68
(lp963
g104
asbasbasbag61
(g77
g63
NtRp964
(dp965
g66
(dp966
sg75
g826
sg68
(lp967
g61
(g82
g63
NtRp968
(dp969
g66
(dp970
g86
g87
ssg75
g964
sg68
(lp971
S'gluon_parent'
p972
asbag61
(g82
g63
NtRp973
(dp974
g66
(dp975
g93
g94
ssg75
g964
sg68
(lp976
S':'
asbag61
(g82
g63
NtRp977
(dp978
g66
(dp979
sg75
g964
sg68
(lp980
g61
(g62
g63
NtRp981
(dp982
g66
(dp983
g74
I4
ssg75
g977
sg68
(lp984
S'/home/anu/Desktop/M12/ssad m12/web2py'
p985
asbasbasbag61
(g77
g63
NtRp986
(dp987
g66
(dp988
sg75
g826
sg68
(lp989
g61
(g82
g63
NtRp990
(dp991
g66
(dp992
g86
g87
ssg75
g986
sg68
(lp993
S'http_accept'
p994
asbag61
(g82
g63
NtRp995
(dp996
g66
(dp997
g93
g94
ssg75
g986
sg68
(lp998
S':'
asbag61
(g82
g63
NtRp999
(dp1000
g66
(dp1001
sg75
g986
sg68
(lp1002
g61
(g62
g63
NtRp1003
(dp1004
g66
(dp1005
g74
I4
ssg75
g999
sg68
(lp1006
S'text/html,application/xhtml+xml,application/xml;q=0.9,*/*;q=0.8'
p1007
asbasbasbag61
(g77
g63
NtRp1008
(dp1009
g66
(dp1010
sg75
g826
sg68
(lp1011
g61
(g82
g63
NtRp1012
(dp1013
g66
(dp1014
g86
g87
ssg75
g1008
sg68
(lp1015
S'http_accept_encoding'
p1016
asbag61
(g82
g63
NtRp1017
(dp1018
g66
(dp1019
g93
g94
ssg75
g1008
sg68
(lp1020
S':'
asbag61
(g82
g63
NtRp1021
(dp1022
g66
(dp1023
sg75
g1008
sg68
(lp1024
g61
(g62
g63
NtRp1025
(dp1026
g66
(dp1027
g74
I4
ssg75
g1021
sg68
(lp1028
S'gzip, deflate'
p1029
asbasbasbag61
(g77
g63
NtRp1030
(dp1031
g66
(dp1032
sg75
g826
sg68
(lp1033
g61
(g82
g63
NtRp1034
(dp1035
g66
(dp1036
g86
g87
ssg75
g1030
sg68
(lp1037
S'http_accept_language'
p1038
asbag61
(g82
g63
NtRp1039
(dp1040
g66
(dp1041
g93
g94
ssg75
g1030
sg68
(lp1042
S':'
asbag61
(g82
g63
NtRp1043
(dp1044
g66
(dp1045
sg75
g1030
sg68
(lp1046
g61
(g62
g63
NtRp1047
(dp1048
g66
(dp1049
g74
I4
ssg75
g1043
sg68
(lp1050
S'en-us,en;q=0.5'
p1051
asbasbasbag61
(g77
g63
NtRp1052
(dp1053
g66
(dp1054
sg75
g826
sg68
(lp1055
g61
(g82
g63
NtRp1056
(dp1057
g66
(dp1058
g86
g87
ssg75
g1052
sg68
(lp1059
S'http_connection'
p1060
asbag61
(g82
g63
NtRp1061
(dp1062
g66
(dp1063
g93
g94
ssg75
g1052
sg68
(lp1064
S':'
asbag61
(g82
g63
NtRp1065
(dp1066
g66
(dp1067
sg75
g1052
sg68
(lp1068
g61
(g62
g63
NtRp1069
(dp1070
g66
(dp1071
g74
I4
ssg75
g1065
sg68
(lp1072
S'keep-alive'
p1073
asbasbasbag61
(g77
g63
NtRp1074
(dp1075
g66
(dp1076
sg75
g826
sg68
(lp1077
g61
(g82
g63
NtRp1078
(dp1079
g66
(dp1080
g86
g87
ssg75
g1074
sg68
(lp1081
S'http_cookie'
p1082
asbag61
(g82
g63
NtRp1083
(dp1084
g66
(dp1085
g93
g94
ssg75
g1074
sg68
(lp1086
S':'
asbag61
(g82
g63
NtRp1087
(dp1088
g66
(dp1089
sg75
g1074
sg68
(lp1090
g61
(g62
g63
NtRp1091
(dp1092
g66
(dp1093
g74
I4
ssg75
g1087
sg68
(lp1094
S'session_id_welcome=127.0.0.1-f551d1a7-c283-4dc8-96bd-1a410786da2a; session_id_photoupload=127.0.0.1-0f635432-6687-421f-a06a-9fc402d47a2b; session_id_admin=127.0.0.1-b5012e10-01cf-457f-b01a-c872c789e644'
p1095
asbasbasbag61
(g77
g63
NtRp1096
(dp1097
g66
(dp1098
sg75
g826
sg68
(lp1099
g61
(g82
g63
NtRp1100
(dp1101
g66
(dp1102
g86
g87
ssg75
g1096
sg68
(lp1103
S'http_host'
p1104
asbag61
(g82
g63
NtRp1105
(dp1106
g66
(dp1107
g93
g94
ssg75
g1096
sg68
(lp1108
S':'
asbag61
(g82
g63
NtRp1109
(dp1110
g66
(dp1111
sg75
g1096
sg68
(lp1112
g61
(g62
g63
NtRp1113
(dp1114
g66
(dp1115
g74
I4
ssg75
g1109
sg68
(lp1116
S'127.0.0.1:8000'
p1117
asbasbasbag61
(g77
g63
NtRp1118
(dp1119
g66
(dp1120
sg75
g826
sg68
(lp1121
g61
(g82
g63
NtRp1122
(dp1123
g66
(dp1124
g86
g87
ssg75
g1118
sg68
(lp1125
S'http_referer'
p1126
asbag61
(g82
g63
NtRp1127
(dp1128
g66
(dp1129
g93
g94
ssg75
g1118
sg68
(lp1130
S':'
asbag61
(g82
g63
NtRp1131
(dp1132
g66
(dp1133
sg75
g1118
sg68
(lp1134
g61
(g62
g63
NtRp1135
(dp1136
g66
(dp1137
g74
I4
ssg75
g1131
sg68
(lp1138
S'http://127.0.0.1:8000/admin/default/site'
p1139
asbasbasbag61
(g77
g63
NtRp1140
(dp1141
g66
(dp1142
sg75
g826
sg68
(lp1143
g61
(g82
g63
NtRp1144
(dp1145
g66
(dp1146
g86
g87
ssg75
g1140
sg68
(lp1147
S'http_user_agent'
p1148
asbag61
(g82
g63
NtRp1149
(dp1150
g66
(dp1151
g93
g94
ssg75
g1140
sg68
(lp1152
S':'
asbag61
(g82
g63
NtRp1153
(dp1154
g66
(dp1155
sg75
g1140
sg68
(lp1156
g61
(g62
g63
NtRp1157
(dp1158
g66
(dp1159
g74
I4
ssg75
g1153
sg68
(lp1160
S'Mozilla/5.0 (X11; Ubuntu; Linux i686; rv:14.0) Gecko/20100101 Firefox/14.0.1'
p1161
asbasbasbag61
(g77
g63
NtRp1162
(dp1163
g66
(dp1164
sg75
g826
sg68
(lp1165
g61
(g82
g63
NtRp1166
(dp1167
g66
(dp1168
g86
g87
ssg75
g1162
sg68
(lp1169
S'is_jython'
p1170
asbag61
(g82
g63
NtRp1171
(dp1172
g66
(dp1173
g93
g94
ssg75
g1162
sg68
(lp1174
S':'
asbag61
(g82
g63
NtRp1175
(dp1176
g66
(dp1177
sg75
g1162
sg68
(lp1178
g61
(g62
g63
NtRp1179
(dp1180
g66
(dp1181
g74
I4
ssg75
g1175
sg68
(lp1182
g104
asbasbasbag61
(g77
g63
NtRp1183
(dp1184
g66
(dp1185
sg75
g826
sg68
(lp1186
g61
(g82
g63
NtRp1187
(dp1188
g66
(dp1189
g86
g87
ssg75
g1183
sg68
(lp1190
S'is_pypy'
p1191
asbag61
(g82
g63
NtRp1192
(dp1193
g66
(dp1194
g93
g94
ssg75
g1183
sg68
(lp1195
S':'
asbag61
(g82
g63
NtRp1196
(dp1197
g66
(dp1198
sg75
g1183
sg68
(lp1199
g61
(g62
g63
NtRp1200
(dp1201
g66
(dp1202
g74
I4
ssg75
g1196
sg68
(lp1203
g104
asbasbasbag61
(g77
g63
NtRp1204
(dp1205
g66
(dp1206
sg75
g826
sg68
(lp1207
g61
(g82
g63
NtRp1208
(dp1209
g66
(dp1210
g86
g87
ssg75
g1204
sg68
(lp1211
S'path_info'
p1212
asbag61
(g82
g63
NtRp1213
(dp1214
g66
(dp1215
g93
g94
ssg75
g1204
sg68
(lp1216
S':'
asbag61
(g82
g63
NtRp1217
(dp1218
g66
(dp1219
sg75
g1204
sg68
(lp1220
g61
(g62
g63
NtRp1221
(dp1222
g66
(dp1223
g74
I4
ssg75
g1217
sg68
(lp1224
S'/PhotoUpload/default/index'
p1225
asbasbasbag61
(g77
g63
NtRp1226
(dp1227
g66
(dp1228
sg75
g826
sg68
(lp1229
g61
(g82
g63
NtRp1230
(dp1231
g66
(dp1232
g86
g87
ssg75
g1226
sg68
(lp1233
S'query_string'
p1234
asbag61
(g82
g63
NtRp1235
(dp1236
g66
(dp1237
g93
g94
ssg75
g1226
sg68
(lp1238
S':'
asbag61
(g82
g63
NtRp1239
(dp1240
g66
(dp1241
sg75
g1226
sg68
(lp1242
g61
(g62
g63
NtRp1243
(dp1244
g66
(dp1245
g74
I4
ssg75
g1239
sg68
(lp1246
S''
asbasbasbag61
(g77
g63
NtRp1247
(dp1248
g66
(dp1249
sg75
g826
sg68
(lp1250
g61
(g82
g63
NtRp1251
(dp1252
g66
(dp1253
g86
g87
ssg75
g1247
sg68
(lp1254
S'remote_addr'
p1255
asbag61
(g82
g63
NtRp1256
(dp1257
g66
(dp1258
g93
g94
ssg75
g1247
sg68
(lp1259
S':'
asbag61
(g82
g63
NtRp1260
(dp1261
g66
(dp1262
sg75
g1247
sg68
(lp1263
g61
(g62
g63
NtRp1264
(dp1265
g66
(dp1266
g74
I4
ssg75
g1260
sg68
(lp1267
g194
asbasbasbag61
(g77
g63
NtRp1268
(dp1269
g66
(dp1270
sg75
g826
sg68
(lp1271
g61
(g82
g63
NtRp1272
(dp1273
g66
(dp1274
g86
g87
ssg75
g1268
sg68
(lp1275
S'remote_port'
p1276
asbag61
(g82
g63
NtRp1277
(dp1278
g66
(dp1279
g93
g94
ssg75
g1268
sg68
(lp1280
S':'
asbag61
(g82
g63
NtRp1281
(dp1282
g66
(dp1283
sg75
g1268
sg68
(lp1284
g61
(g62
g63
NtRp1285
(dp1286
g66
(dp1287
g74
I4
ssg75
g1281
sg68
(lp1288
S'44019'
p1289
asbasbasbag61
(g77
g63
NtRp1290
(dp1291
g66
(dp1292
sg75
g826
sg68
(lp1293
g61
(g82
g63
NtRp1294
(dp1295
g66
(dp1296
g86
g87
ssg75
g1290
sg68
(lp1297
S'request_method'
p1298
asbag61
(g82
g63
NtRp1299
(dp1300
g66
(dp1301
g93
g94
ssg75
g1290
sg68
(lp1302
S':'
asbag61
(g82
g63
NtRp1303
(dp1304
g66
(dp1305
sg75
g1290
sg68
(lp1306
g61
(g62
g63
NtRp1307
(dp1308
g66
(dp1309
g74
I4
ssg75
g1303
sg68
(lp1310
S'GET'
p1311
asbasbasbag61
(g77
g63
NtRp1312
(dp1313
g66
(dp1314
sg75
g826
sg68
(lp1315
g61
(g82
g63
NtRp1316
(dp1317
g66
(dp1318
g86
g87
ssg75
g1312
sg68
(lp1319
S'script_name'
p1320
asbag61
(g82
g63
NtRp1321
(dp1322
g66
(dp1323
g93
g94
ssg75
g1312
sg68
(lp1324
S':'
asbag61
(g82
g63
NtRp1325
(dp1326
g66
(dp1327
sg75
g1312
sg68
(lp1328
g61
(g62
g63
NtRp1329
(dp1330
g66
(dp1331
g74
I4
ssg75
g1325
sg68
(lp1332
S''
asbasbasbag61
(g77
g63
NtRp1333
(dp1334
g66
(dp1335
sg75
g826
sg68
(lp1336
g61
(g82
g63
NtRp1337
(dp1338
g66
(dp1339
g86
g87
ssg75
g1333
sg68
(lp1340
S'server_name'
p1341
asbag61
(g82
g63
NtRp1342
(dp1343
g66
(dp1344
g93
g94
ssg75
g1333
sg68
(lp1345
S':'
asbag61
(g82
g63
NtRp1346
(dp1347
g66
(dp1348
sg75
g1333
sg68
(lp1349
g61
(g62
g63
NtRp1350
(dp1351
g66
(dp1352
g74
I4
ssg75
g1346
sg68
(lp1353
S'COMPAQ'
p1354
asbasbasbag61
(g77
g63
NtRp1355
(dp1356
g66
(dp1357
sg75
g826
sg68
(lp1358
g61
(g82
g63
NtRp1359
(dp1360
g66
(dp1361
g86
g87
ssg75
g1355
sg68
(lp1362
S'server_port'
p1363
asbag61
(g82
g63
NtRp1364
(dp1365
g66
(dp1366
g93
g94
ssg75
g1355
sg68
(lp1367
S':'
asbag61
(g82
g63
NtRp1368
(dp1369
g66
(dp1370
sg75
g1355
sg68
(lp1371
g61
(g62
g63
NtRp1372
(dp1373
g66
(dp1374
g74
I4
ssg75
g1368
sg68
(lp1375
S'8000'
p1376
asbasbasbag61
(g77
g63
NtRp1377
(dp1378
g66
(dp1379
sg75
g826
sg68
(lp1380
g61
(g82
g63
NtRp1381
(dp1382
g66
(dp1383
g86
g87
ssg75
g1377
sg68
(lp1384
S'server_protocol'
p1385
asbag61
(g82
g63
NtRp1386
(dp1387
g66
(dp1388
g93
g94
ssg75
g1377
sg68
(lp1389
S':'
asbag61
(g82
g63
NtRp1390
(dp1391
g66
(dp1392
sg75
g1377
sg68
(lp1393
g61
(g62
g63
NtRp1394
(dp1395
g66
(dp1396
g74
I4
ssg75
g1390
sg68
(lp1397
S'HTTP/1.1'
p1398
asbasbasbag61
(g77
g63
NtRp1399
(dp1400
g66
(dp1401
sg75
g826
sg68
(lp1402
g61
(g82
g63
NtRp1403
(dp1404
g66
(dp1405
g86
g87
ssg75
g1399
sg68
(lp1406
S'server_software'
p1407
asbag61
(g82
g63
NtRp1408
(dp1409
g66
(dp1410
g93
g94
ssg75
g1399
sg68
(lp1411
S':'
asbag61
(g82
g63
NtRp1412
(dp1413
g66
(dp1414
sg75
g1399
sg68
(lp1415
g61
(g62
g63
NtRp1416
(dp1417
g66
(dp1418
g74
I4
ssg75
g1412
sg68
(lp1419
S'Rocket 1.2.4'
p1420
asbasbasbag61
(g77
g63
NtRp1421
(dp1422
g66
(dp1423
sg75
g826
sg68
(lp1424
g61
(g82
g63
NtRp1425
(dp1426
g66
(dp1427
g86
g87
ssg75
g1421
sg68
(lp1428
S'web2py_crontype'
p1429
asbag61
(g82
g63
NtRp1430
(dp1431
g66
(dp1432
g93
g94
ssg75
g1421
sg68
(lp1433
S':'
asbag61
(g82
g63
NtRp1434
(dp1435
g66
(dp1436
sg75
g1421
sg68
(lp1437
g61
(g62
g63
NtRp1438
(dp1439
g66
(dp1440
g74
I4
ssg75
g1434
sg68
(lp1441
S'hard'
p1442
asbasbasbag61
(g77
g63
NtRp1443
(dp1444
g66
(dp1445
sg75
g826
sg68
(lp1446
g61
(g82
g63
NtRp1447
(dp1448
g66
(dp1449
g86
g87
ssg75
g1443
sg68
(lp1450
S'web2py_path'
p1451
asbag61
(g82
g63
NtRp1452
(dp1453
g66
(dp1454
g93
g94
ssg75
g1443
sg68
(lp1455
S':'
asbag61
(g82
g63
NtRp1456
(dp1457
g66
(dp1458
sg75
g1443
sg68
(lp1459
g61
(g62
g63
NtRp1460
(dp1461
g66
(dp1462
g74
I4
ssg75
g1456
sg68
(lp1463
g873
asbasbasbag61
(g77
g63
NtRp1464
(dp1465
g66
(dp1466
sg75
g826
sg68
(lp1467
g61
(g82
g63
NtRp1468
(dp1469
g66
(dp1470
g86
g87
ssg75
g1464
sg68
(lp1471
S'web2py_version'
p1472
asbag61
(g82
g63
NtRp1473
(dp1474
g66
(dp1475
g93
g94
ssg75
g1464
sg68
(lp1476
S':'
asbag61
(g82
g63
NtRp1477
(dp1478
g66
(dp1479
sg75
g1464
sg68
(lp1480
g61
(g62
g63
NtRp1481
(dp1482
g66
(dp1483
g74
I4
ssg75
g1477
sg68
(lp1484
g61
(g70
g63
NtRp1485
(dp1486
g66
(dp1487
g74
I3
ssg75
Nsg68
(lp1488
g61
(g77
g63
NtRp1489
(dp1490
g66
(dp1491
sg75
g1485
sg68
(lp1492
g61
(g82
g63
NtRp1493
(dp1494
g66
(dp1495
sg75
g1489
sg68
(lp1496
g61
(g62
g63
NtRp1497
(dp1498
g66
(dp1499
g74
I3
ssg75
g1493
sg68
(lp1500
S'1'
asbasbasbag61
(g77
g63
NtRp1501
(dp1502
g66
(dp1503
sg75
g1485
sg68
(lp1504
g61
(g82
g63
NtRp1505
(dp1506
g66
(dp1507
sg75
g1501
sg68
(lp1508
g61
(g62
g63
NtRp1509
(dp1510
g66
(dp1511
g74
I3
ssg75
g1505
sg68
(lp1512
S'99'
p1513
asbasbasbag61
(g77
g63
NtRp1514
(dp1515
g66
(dp1516
sg75
g1485
sg68
(lp1517
g61
(g82
g63
NtRp1518
(dp1519
g66
(dp1520
sg75
g1514
sg68
(lp1521
g61
(g62
g63
NtRp1522
(dp1523
g66
(dp1524
g74
I3
ssg75
g1518
sg68
(lp1525
S'7'
asbasbasbag61
(g77
g63
NtRp1526
(dp1527
g66
(dp1528
sg75
g1485
sg68
(lp1529
g61
(g82
g63
NtRp1530
(dp1531
g66
(dp1532
sg75
g1526
sg68
(lp1533
g61
(g62
g63
NtRp1534
(dp1535
g66
(dp1536
g74
I3
ssg75
g1530
sg68
(lp1537
S'datetime.datetime(2012, 3, 4, 22, 12, 8)'
p1538
asbasbasbag61
(g77
g63
NtRp1539
(dp1540
g66
(dp1541
sg75
g1485
sg68
(lp1542
g61
(g82
g63
NtRp1543
(dp1544
g66
(dp1545
sg75
g1539
sg68
(lp1546
g61
(g62
g63
NtRp1547
(dp1548
g66
(dp1549
g74
I3
ssg75
g1543
sg68
(lp1550
S'stable'
p1551
asbasbasbasbasbasbasbag61
(g77
g63
NtRp1552
(dp1553
g66
(dp1554
sg75
g826
sg68
(lp1555
g61
(g82
g63
NtRp1556
(dp1557
g66
(dp1558
g86
g87
ssg75
g1552
sg68
(lp1559
S'wsgi_errors'
p1560
asbag61
(g82
g63
NtRp1561
(dp1562
g66
(dp1563
g93
g94
ssg75
g1552
sg68
(lp1564
S':'
asbag61
(g82
g63
NtRp1565
(dp1566
g66
(dp1567
sg75
g1552
sg68
(lp1568
g61
(g62
g63
NtRp1569
(dp1570
g66
(dp1571
g74
I4
ssg75
g1565
sg68
(lp1572
S"<open file '<stderr>', mode 'w' at 0xb72ec0d0>"
p1573
asbasbasbag61
(g77
g63
NtRp1574
(dp1575
g66
(dp1576
sg75
g826
sg68
(lp1577
g61
(g82
g63
NtRp1578
(dp1579
g66
(dp1580
g86
g87
ssg75
g1574
sg68
(lp1581
S'wsgi_file_wrapper'
p1582
asbag61
(g82
g63
NtRp1583
(dp1584
g66
(dp1585
g93
g94
ssg75
g1574
sg68
(lp1586
S':'
asbag61
(g82
g63
NtRp1587
(dp1588
g66
(dp1589
sg75
g1574
sg68
(lp1590
g61
(g62
g63
NtRp1591
(dp1592
g66
(dp1593
g74
I4
ssg75
g1587
sg68
(lp1594
S'<class wsgiref.util.FileWrapper at 0x92bde3c>'
p1595
asbasbasbag61
(g77
g63
NtRp1596
(dp1597
g66
(dp1598
sg75
g826
sg68
(lp1599
g61
(g82
g63
NtRp1600
(dp1601
g66
(dp1602
g86
g87
ssg75
g1596
sg68
(lp1603
S'wsgi_input'
p1604
asbag61
(g82
g63
NtRp1605
(dp1606
g66
(dp1607
g93
g94
ssg75
g1596
sg68
(lp1608
S':'
asbag61
(g82
g63
NtRp1609
(dp1610
g66
(dp1611
sg75
g1596
sg68
(lp1612
g61
(g62
g63
NtRp1613
(dp1614
g66
(dp1615
g74
I4
ssg75
g1609
sg68
(lp1616
S'<socket._fileobject object at 0x93fc2ac>'
p1617
asbasbasbag61
(g77
g63
NtRp1618
(dp1619
g66
(dp1620
sg75
g826
sg68
(lp1621
g61
(g82
g63
NtRp1622
(dp1623
g66
(dp1624
g86
g87
ssg75
g1618
sg68
(lp1625
S'wsgi_multiprocess'
p1626
asbag61
(g82
g63
NtRp1627
(dp1628
g66
(dp1629
g93
g94
ssg75
g1618
sg68
(lp1630
S':'
asbag61
(g82
g63
NtRp1631
(dp1632
g66
(dp1633
sg75
g1618
sg68
(lp1634
g61
(g62
g63
NtRp1635
(dp1636
g66
(dp1637
g74
I4
ssg75
g1631
sg68
(lp1638
g104
asbasbasbag61
(g77
g63
NtRp1639
(dp1640
g66
(dp1641
sg75
g826
sg68
(lp1642
g61
(g82
g63
NtRp1643
(dp1644
g66
(dp1645
g86
g87
ssg75
g1639
sg68
(lp1646
S'wsgi_multithread'
p1647
asbag61
(g82
g63
NtRp1648
(dp1649
g66
(dp1650
g93
g94
ssg75
g1639
sg68
(lp1651
S':'
asbag61
(g82
g63
NtRp1652
(dp1653
g66
(dp1654
sg75
g1639
sg68
(lp1655
g61
(g62
g63
NtRp1656
(dp1657
g66
(dp1658
g74
I4
ssg75
g1652
sg68
(lp1659
S'True'
p1660
asbasbasbag61
(g77
g63
NtRp1661
(dp1662
g66
(dp1663
sg75
g826
sg68
(lp1664
g61
(g82
g63
NtRp1665
(dp1666
g66
(dp1667
g86
g87
ssg75
g1661
sg68
(lp1668
S'wsgi_run_once'
p1669
asbag61
(g82
g63
NtRp1670
(dp1671
g66
(dp1672
g93
g94
ssg75
g1661
sg68
(lp1673
S':'
asbag61
(g82
g63
NtRp1674
(dp1675
g66
(dp1676
sg75
g1661
sg68
(lp1677
g61
(g62
g63
NtRp1678
(dp1679
g66
(dp1680
g74
I4
ssg75
g1674
sg68
(lp1681
g104
asbasbasbag61
(g77
g63
NtRp1682
(dp1683
g66
(dp1684
sg75
g826
sg68
(lp1685
g61
(g82
g63
NtRp1686
(dp1687
g66
(dp1688
g86
g87
ssg75
g1682
sg68
(lp1689
S'wsgi_url_scheme'
p1690
asbag61
(g82
g63
NtRp1691
(dp1692
g66
(dp1693
g93
g94
ssg75
g1682
sg68
(lp1694
S':'
asbag61
(g82
g63
NtRp1695
(dp1696
g66
(dp1697
sg75
g1682
sg68
(lp1698
g61
(g62
g63
NtRp1699
(dp1700
g66
(dp1701
g74
I4
ssg75
g1695
sg68
(lp1702
S'http'
p1703
asbasbasbag61
(g77
g63
NtRp1704
(dp1705
g66
(dp1706
sg75
g826
sg68
(lp1707
g61
(g82
g63
NtRp1708
(dp1709
g66
(dp1710
g86
g87
ssg75
g1704
sg68
(lp1711
S'wsgi_version'
p1712
asbag61
(g82
g63
NtRp1713
(dp1714
g66
(dp1715
g93
g94
ssg75
g1704
sg68
(lp1716
S':'
asbag61
(g82
g63
NtRp1717
(dp1718
g66
(dp1719
sg75
g1704
sg68
(lp1720
g61
(g62
g63
NtRp1721
(dp1722
g66
(dp1723
g74
I4
ssg75
g1717
sg68
(lp1724
g61
(g70
g63
NtRp1725
(dp1726
g66
(dp1727
g74
I3
ssg75
Nsg68
(lp1728
g61
(g77
g63
NtRp1729
(dp1730
g66
(dp1731
sg75
g1725
sg68
(lp1732
g61
(g82
g63
NtRp1733
(dp1734
g66
(dp1735
sg75
g1729
sg68
(lp1736
g61
(g62
g63
NtRp1737
(dp1738
g66
(dp1739
g74
I3
ssg75
g1733
sg68
(lp1740
S'1'
asbasbasbag61
(g77
g63
NtRp1741
(dp1742
g66
(dp1743
sg75
g1725
sg68
(lp1744
g61
(g82
g63
NtRp1745
(dp1746
g66
(dp1747
sg75
g1741
sg68
(lp1748
g61
(g62
g63
NtRp1749
(dp1750
g66
(dp1751
g74
I3
ssg75
g1745
sg68
(lp1752
S'0'
asbasbasbasbasbasbasbasbasbasbasbag61
(g77
g63
NtRp1753
(dp1754
g66
(dp1755
sg75
g71
sg68
(lp1756
g61
(g82
g63
NtRp1757
(dp1758
g66
(dp1759
g86
g87
ssg75
g1753
sg68
(lp1760
S'extension'
p1761
asbag61
(g82
g63
NtRp1762
(dp1763
g66
(dp1764
g93
g94
ssg75
g1753
sg68
(lp1765
S':'
asbag61
(g82
g63
NtRp1766
(dp1767
g66
(dp1768
sg75
g1753
sg68
(lp1769
g61
(g62
g63
NtRp1770
(dp1771
g66
(dp1772
g74
I5
ssg75
g1766
sg68
(lp1773
S'html'
p1774
asbasbasbag61
(g77
g63
NtRp1775
(dp1776
g66
(dp1777
sg75
g71
sg68
(lp1778
g61
(g82
g63
NtRp1779
(dp1780
g66
(dp1781
g86
g87
ssg75
g1775
sg68
(lp1782
S'folder'
p1783
asbag61
(g82
g63
NtRp1784
(dp1785
g66
(dp1786
g93
g94
ssg75
g1775
sg68
(lp1787
S':'
asbag61
(g82
g63
NtRp1788
(dp1789
g66
(dp1790
sg75
g1775
sg68
(lp1791
g61
(g62
g63
NtRp1792
(dp1793
g66
(dp1794
g74
I5
ssg75
g1788
sg68
(lp1795
S'/home/anu/Desktop/M12/ssad m12/web2py/applications/PhotoUpload/'
p1796
asbasbasbag61
(g77
g63
NtRp1797
(dp1798
g66
(dp1799
sg75
g71
sg68
(lp1800
g61
(g82
g63
NtRp1801
(dp1802
g66
(dp1803
g86
g87
ssg75
g1797
sg68
(lp1804
S'function'
p1805
asbag61
(g82
g63
NtRp1806
(dp1807
g66
(dp1808
g93
g94
ssg75
g1797
sg68
(lp1809
S':'
asbag61
(g82
g63
NtRp1810
(dp1811
g66
(dp1812
sg75
g1797
sg68
(lp1813
g61
(g62
g63
NtRp1814
(dp1815
g66
(dp1816
g74
I5
ssg75
g1810
sg68
(lp1817
S'index'
p1818
asbasbasbag61
(g77
g63
NtRp1819
(dp1820
g66
(dp1821
sg75
g71
sg68
(lp1822
g61
(g82
g63
NtRp1823
(dp1824
g66
(dp1825
g86
g87
ssg75
g1819
sg68
(lp1826
S'get_vars'
p1827
asbag61
(g82
g63
NtRp1828
(dp1829
g66
(dp1830
g93
g94
ssg75
g1819
sg68
(lp1831
S':'
asbag61
(g82
g63
NtRp1832
(dp1833
g66
(dp1834
sg75
g1819
sg68
(lp1835
g61
(g62
g63
NtRp1836
(dp1837
g66
(dp1838
g74
I5
ssg75
g1832
sg68
(lp1839
g61
(g70
g63
NtRp1840
(dp1841
g66
(dp1842
g74
I4
ssg75
Nsg68
(lp1843
sbasbasbasbag61
(g77
g63
NtRp1844
(dp1845
g66
(dp1846
sg75
g71
sg68
(lp1847
g61
(g82
g63
NtRp1848
(dp1849
g66
(dp1850
g86
g87
ssg75
g1844
sg68
(lp1851
S'global_settings'
p1852
asbag61
(g82
g63
NtRp1853
(dp1854
g66
(dp1855
g93
g94
ssg75
g1844
sg68
(lp1856
S':'
asbag61
(g82
g63
NtRp1857
(dp1858
g66
(dp1859
sg75
g1844
sg68
(lp1860
g61
(g62
g63
NtRp1861
(dp1862
g66
(dp1863
g74
I5
ssg75
g1857
sg68
(lp1864
g61
(g70
g63
NtRp1865
(dp1866
g66
(dp1867
g74
I4
ssg75
Nsg68
(lp1868
g61
(g77
g63
NtRp1869
(dp1870
g66
(dp1871
sg75
g1865
sg68
(lp1872
g61
(g82
g63
NtRp1873
(dp1874
g66
(dp1875
g86
g87
ssg75
g1869
sg68
(lp1876
g838
asbag61
(g82
g63
NtRp1877
(dp1878
g66
(dp1879
g93
g94
ssg75
g1869
sg68
(lp1880
S':'
asbag61
(g82
g63
NtRp1881
(dp1882
g66
(dp1883
sg75
g1869
sg68
(lp1884
g61
(g62
g63
NtRp1885
(dp1886
g66
(dp1887
g74
I4
ssg75
g1881
sg68
(lp1888
S"set(['/home/anu/Desktop/M12/ssad m12/web2py/applications/PhotoUpload/', '/home/anu/Desktop/M12/ssad m12/web2py/applications/welcome/', '/home/anu/Desktop/M12/ssad m12/web2py/applications/admin/'])"
p1889
asbasbasbag61
(g77
g63
NtRp1890
(dp1891
g66
(dp1892
sg75
g1865
sg68
(lp1893
g61
(g82
g63
NtRp1894
(dp1895
g66
(dp1896
g86
g87
ssg75
g1890
sg68
(lp1897
g860
asbag61
(g82
g63
NtRp1898
(dp1899
g66
(dp1900
g93
g94
ssg75
g1890
sg68
(lp1901
S':'
asbag61
(g82
g63
NtRp1902
(dp1903
g66
(dp1904
sg75
g1890
sg68
(lp1905
g61
(g62
g63
NtRp1906
(dp1907
g66
(dp1908
g74
I4
ssg75
g1902
sg68
(lp1909
g873
asbasbasbag61
(g77
g63
NtRp1910
(dp1911
g66
(dp1912
sg75
g1865
sg68
(lp1913
g61
(g82
g63
NtRp1914
(dp1915
g66
(dp1916
g86
g87
ssg75
g1910
sg68
(lp1917
g882
asbag61
(g82
g63
NtRp1918
(dp1919
g66
(dp1920
g93
g94
ssg75
g1910
sg68
(lp1921
S':'
asbag61
(g82
g63
NtRp1922
(dp1923
g66
(dp1924
sg75
g1910
sg68
(lp1925
g61
(g62
g63
NtRp1926
(dp1927
g66
(dp1928
g74
I4
ssg75
g1922
sg68
(lp1929
g61
(g70
g63
NtRp1930
(dp1931
g66
(dp1932
g74
I3
ssg75
Nsg68
(lp1933
sbasbasbasbag61
(g77
g63
NtRp1934
(dp1935
g66
(dp1936
sg75
g1865
sg68
(lp1937
g61
(g82
g63
NtRp1938
(dp1939
g66
(dp1940
g86
g87
ssg75
g1934
sg68
(lp1941
g907
asbag61
(g82
g63
NtRp1942
(dp1943
g66
(dp1944
g93
g94
ssg75
g1934
sg68
(lp1945
S':'
asbag61
(g82
g63
NtRp1946
(dp1947
g66
(dp1948
sg75
g1934
sg68
(lp1949
g61
(g62
g63
NtRp1950
(dp1951
g66
(dp1952
g74
I4
ssg75
g1946
sg68
(lp1953
S"<Values at 0x92e784c: {'verbose': False, 'ip': '127.0.0.1', 'shutdown_timeout': 5, 'taskbar': False, 'nocron': False, 'pid_filename': 'httpserver.pid', 'maxthreads': None, 'softcron': False, 'server_name': 'COMPAQ', 'bpython': False, 'nogui': False, 'port': 8000, 'extcron': False, 'debuglevel': 30, 'test': None, 'folder': '/home/anu/Desktop/M12/ssad m12/web2py', 'config': '', 'import_models': False, 'winservice': '', 'shell': None, 'run': '', 'log_filename': 'httpserver.log', 'args': [''], 'socket_timeout': 5, 'ssl_ca_certificate': None, 'scheduler': None, 'profiler_filename': None, 'ssl_private_key': '', 'password': 'anu', 'request_queue_size': 5, 'ssl_certificate': '', 'cronjob': False, 'numthreads': None, 'quiet': False, 'interfaces': None, 'minthreads': None, 'timeout': 10, 'plain': False, 'nobanner': False}>"
p1954
asbasbasbag61
(g77
g63
NtRp1955
(dp1956
g66
(dp1957
sg75
g1865
sg68
(lp1958
g61
(g82
g63
NtRp1959
(dp1960
g66
(dp1961
g86
g87
ssg75
g1955
sg68
(lp1962
g929
asbag61
(g82
g63
NtRp1963
(dp1964
g66
(dp1965
g93
g94
ssg75
g1955
sg68
(lp1966
S':'
asbag61
(g82
g63
NtRp1967
(dp1968
g66
(dp1969
sg75
g1955
sg68
(lp1970
g61
(g62
g63
NtRp1971
(dp1972
g66
(dp1973
g74
I4
ssg75
g1967
sg68
(lp1974
S'set([])'
p1975
asbasbasbag61
(g77
g63
NtRp1976
(dp1977
g66
(dp1978
sg75
g1865
sg68
(lp1979
g61
(g82
g63
NtRp1980
(dp1981
g66
(dp1982
g86
g87
ssg75
g1976
sg68
(lp1983
g951
asbag61
(g82
g63
NtRp1984
(dp1985
g66
(dp1986
g93
g94
ssg75
g1976
sg68
(lp1987
S':'
asbag61
(g82
g63
NtRp1988
(dp1989
g66
(dp1990
sg75
g1976
sg68
(lp1991
g61
(g62
g63
NtRp1992
(dp1993
g66
(dp1994
g74
I4
ssg75
g1988
sg68
(lp1995
g104
asbasbasbag61
(g77
g63
NtRp1996
(dp1997
g66
(dp1998
sg75
g1865
sg68
(lp1999
g61
(g82
g63
NtRp2000
(dp2001
g66
(dp2002
g86
g87
ssg75
g1996
sg68
(lp2003
g972
asbag61
(g82
g63
NtRp2004
(dp2005
g66
(dp2006
g93
g94
ssg75
g1996
sg68
(lp2007
S':'
asbag61
(g82
g63
NtRp2008
(dp2009
g66
(dp2010
sg75
g1996
sg68
(lp2011
g61
(g62
g63
NtRp2012
(dp2013
g66
(dp2014
g74
I4
ssg75
g2008
sg68
(lp2015
g985
asbasbasbag61
(g77
g63
NtRp2016
(dp2017
g66
(dp2018
sg75
g1865
sg68
(lp2019
g61
(g82
g63
NtRp2020
(dp2021
g66
(dp2022
g86
g87
ssg75
g2016
sg68
(lp2023
g1170
asbag61
(g82
g63
NtRp2024
(dp2025
g66
(dp2026
g93
g94
ssg75
g2016
sg68
(lp2027
S':'
asbag61
(g82
g63
NtRp2028
(dp2029
g66
(dp2030
sg75
g2016
sg68
(lp2031
g61
(g62
g63
NtRp2032
(dp2033
g66
(dp2034
g74
I4
ssg75
g2028
sg68
(lp2035
g104
asbasbasbag61
(g77
g63
NtRp2036
(dp2037
g66
(dp2038
sg75
g1865
sg68
(lp2039
g61
(g82
g63
NtRp2040
(dp2041
g66
(dp2042
g86
g87
ssg75
g2036
sg68
(lp2043
g1191
asbag61
(g82
g63
NtRp2044
(dp2045
g66
(dp2046
g93
g94
ssg75
g2036
sg68
(lp2047
S':'
asbag61
(g82
g63
NtRp2048
(dp2049
g66
(dp2050
sg75
g2036
sg68
(lp2051
g61
(g62
g63
NtRp2052
(dp2053
g66
(dp2054
g74
I4
ssg75
g2048
sg68
(lp2055
g104
asbasbasbag61
(g77
g63
NtRp2056
(dp2057
g66
(dp2058
sg75
g1865
sg68
(lp2059
g61
(g82
g63
NtRp2060
(dp2061
g66
(dp2062
g86
g87
ssg75
g2056
sg68
(lp2063
g1429
asbag61
(g82
g63
NtRp2064
(dp2065
g66
(dp2066
g93
g94
ssg75
g2056
sg68
(lp2067
S':'
asbag61
(g82
g63
NtRp2068
(dp2069
g66
(dp2070
sg75
g2056
sg68
(lp2071
g61
(g62
g63
NtRp2072
(dp2073
g66
(dp2074
g74
I4
ssg75
g2068
sg68
(lp2075
g1442
asbasbasbag61
(g77
g63
NtRp2076
(dp2077
g66
(dp2078
sg75
g1865
sg68
(lp2079
g61
(g82
g63
NtRp2080
(dp2081
g66
(dp2082
g86
g87
ssg75
g2076
sg68
(lp2083
g1472
asbag61
(g82
g63
NtRp2084
(dp2085
g66
(dp2086
g93
g94
ssg75
g2076
sg68
(lp2087
S':'
asbag61
(g82
g63
NtRp2088
(dp2089
g66
(dp2090
sg75
g2076
sg68
(lp2091
g61
(g62
g63
NtRp2092
(dp2093
g66
(dp2094
g74
I4
ssg75
g2088
sg68
(lp2095
g61
(g70
g63
NtRp2096
(dp2097
g66
(dp2098
g74
I3
ssg75
Nsg68
(lp2099
g61
(g77
g63
NtRp2100
(dp2101
g66
(dp2102
sg75
g2096
sg68
(lp2103
g61
(g82
g63
NtRp2104
(dp2105
g66
(dp2106
sg75
g2100
sg68
(lp2107
g61
(g62
g63
NtRp2108
(dp2109
g66
(dp2110
g74
I3
ssg75
g2104
sg68
(lp2111
S'1'
asbasbasbag61
(g77
g63
NtRp2112
(dp2113
g66
(dp2114
sg75
g2096
sg68
(lp2115
g61
(g82
g63
NtRp2116
(dp2117
g66
(dp2118
sg75
g2112
sg68
(lp2119
g61
(g62
g63
NtRp2120
(dp2121
g66
(dp2122
g74
I3
ssg75
g2116
sg68
(lp2123
S'99'
p2124
asbasbasbag61
(g77
g63
NtRp2125
(dp2126
g66
(dp2127
sg75
g2096
sg68
(lp2128
g61
(g82
g63
NtRp2129
(dp2130
g66
(dp2131
sg75
g2125
sg68
(lp2132
g61
(g62
g63
NtRp2133
(dp2134
g66
(dp2135
g74
I3
ssg75
g2129
sg68
(lp2136
S'7'
asbasbasbag61
(g77
g63
NtRp2137
(dp2138
g66
(dp2139
sg75
g2096
sg68
(lp2140
g61
(g82
g63
NtRp2141
(dp2142
g66
(dp2143
sg75
g2137
sg68
(lp2144
g61
(g62
g63
NtRp2145
(dp2146
g66
(dp2147
g74
I3
ssg75
g2141
sg68
(lp2148
S'datetime.datetime(2012, 3, 4, 22, 12, 8)'
p2149
asbasbasbag61
(g77
g63
NtRp2150
(dp2151
g66
(dp2152
sg75
g2096
sg68
(lp2153
g61
(g82
g63
NtRp2154
(dp2155
g66
(dp2156
sg75
g2150
sg68
(lp2157
g61
(g62
g63
NtRp2158
(dp2159
g66
(dp2160
g74
I3
ssg75
g2154
sg68
(lp2161
g1551
asbasbasbasbasbasbasbasbasbasbasbag61
(g77
g63
NtRp2162
(dp2163
g66
(dp2164
sg75
g71
sg68
(lp2165
g61
(g82
g63
NtRp2166
(dp2167
g66
(dp2168
g86
g87
ssg75
g2162
sg68
(lp2169
S'is_https'
p2170
asbag61
(g82
g63
NtRp2171
(dp2172
g66
(dp2173
g93
g94
ssg75
g2162
sg68
(lp2174
S':'
asbag61
(g82
g63
NtRp2175
(dp2176
g66
(dp2177
sg75
g2162
sg68
(lp2178
g61
(g62
g63
NtRp2179
(dp2180
g66
(dp2181
g74
I5
ssg75
g2175
sg68
(lp2182
g104
asbasbasbag61
(g77
g63
NtRp2183
(dp2184
g66
(dp2185
sg75
g71
sg68
(lp2186
g61
(g82
g63
NtRp2187
(dp2188
g66
(dp2189
g86
g87
ssg75
g2183
sg68
(lp2190
S'is_local'
p2191
asbag61
(g82
g63
NtRp2192
(dp2193
g66
(dp2194
g93
g94
ssg75
g2183
sg68
(lp2195
S':'
asbag61
(g82
g63
NtRp2196
(dp2197
g66
(dp2198
sg75
g2183
sg68
(lp2199
g61
(g62
g63
NtRp2200
(dp2201
g66
(dp2202
g74
I5
ssg75
g2196
sg68
(lp2203
g1660
asbasbasbag61
(g77
g63
NtRp2204
(dp2205
g66
(dp2206
sg75
g71
sg68
(lp2207
g61
(g82
g63
NtRp2208
(dp2209
g66
(dp2210
g86
g87
ssg75
g2204
sg68
(lp2211
S'is_restful'
p2212
asbag61
(g82
g63
NtRp2213
(dp2214
g66
(dp2215
g93
g94
ssg75
g2204
sg68
(lp2216
S':'
asbag61
(g82
g63
NtRp2217
(dp2218
g66
(dp2219
sg75
g2204
sg68
(lp2220
g61
(g62
g63
NtRp2221
(dp2222
g66
(dp2223
g74
I5
ssg75
g2217
sg68
(lp2224
g104
asbasbasbag61
(g77
g63
NtRp2225
(dp2226
g66
(dp2227
sg75
g71
sg68
(lp2228
g61
(g82
g63
NtRp2229
(dp2230
g66
(dp2231
g86
g87
ssg75
g2225
sg68
(lp2232
S'now'
p2233
asbag61
(g82
g63
NtRp2234
(dp2235
g66
(dp2236
g93
g94
ssg75
g2225
sg68
(lp2237
S':'
asbag61
(g82
g63
NtRp2238
(dp2239
g66
(dp2240
sg75
g2225
sg68
(lp2241
g61
(g62
g63
NtRp2242
(dp2243
g66
(dp2244
g74
I5
ssg75
g2238
sg68
(lp2245
S'datetime.datetime(2012, 8, 31, 21, 26, 33, 701983)'
p2246
asbasbasbag61
(g77
g63
NtRp2247
(dp2248
g66
(dp2249
sg75
g71
sg68
(lp2250
g61
(g82
g63
NtRp2251
(dp2252
g66
(dp2253
g86
g87
ssg75
g2247
sg68
(lp2254
S'post_vars'
p2255
asbag61
(g82
g63
NtRp2256
(dp2257
g66
(dp2258
g93
g94
ssg75
g2247
sg68
(lp2259
S':'
asbag61
(g82
g63
NtRp2260
(dp2261
g66
(dp2262
sg75
g2247
sg68
(lp2263
g61
(g62
g63
NtRp2264
(dp2265
g66
(dp2266
g74
I5
ssg75
g2260
sg68
(lp2267
g61
(g70
g63
NtRp2268
(dp2269
g66
(dp2270
g74
I4
ssg75
Nsg68
(lp2271
sbasbasbasbag61
(g77
g63
NtRp2272
(dp2273
g66
(dp2274
sg75
g71
sg68
(lp2275
g61
(g82
g63
NtRp2276
(dp2277
g66
(dp2278
g86
g87
ssg75
g2272
sg68
(lp2279
S'url'
p2280
asbag61
(g82
g63
NtRp2281
(dp2282
g66
(dp2283
g93
g94
ssg75
g2272
sg68
(lp2284
S':'
asbag61
(g82
g63
NtRp2285
(dp2286
g66
(dp2287
sg75
g2272
sg68
(lp2288
g61
(g62
g63
NtRp2289
(dp2290
g66
(dp2291
g74
I5
ssg75
g2285
sg68
(lp2292
S'/PhotoUpload/default/index'
p2293
asbasbasbag61
(g77
g63
NtRp2294
(dp2295
g66
(dp2296
sg75
g71
sg68
(lp2297
g61
(g82
g63
NtRp2298
(dp2299
g66
(dp2300
g86
g87
ssg75
g2294
sg68
(lp2301
S'utcnow'
p2302
asbag61
(g82
g63
NtRp2303
(dp2304
g66
(dp2305
g93
g94
ssg75
g2294
sg68
(lp2306
S':'
asbag61
(g82
g63
NtRp2307
(dp2308
g66
(dp2309
sg75
g2294
sg68
(lp2310
g61
(g62
g63
NtRp2311
(dp2312
g66
(dp2313
g74
I5
ssg75
g2307
sg68
(lp2314
S'datetime.datetime(2012, 8, 31, 15, 56, 33, 702084)'
p2315
asbasbasbag61
(g77
g63
NtRp2316
(dp2317
g66
(dp2318
sg75
g71
sg68
(lp2319
g61
(g82
g63
NtRp2320
(dp2321
g66
(dp2322
g86
g87
ssg75
g2316
sg68
(lp2323
S'uuid'
p2324
asbag61
(g82
g63
NtRp2325
(dp2326
g66
(dp2327
g93
g94
ssg75
g2316
sg68
(lp2328
S':'
asbag61
(g82
g63
NtRp2329
(dp2330
g66
(dp2331
sg75
g2316
sg68
(lp2332
g61
(g62
g63
NtRp2333
(dp2334
g66
(dp2335
g74
I5
ssg75
g2329
sg68
(lp2336
S'PhotoUpload/127.0.0.1.2012-08-31.21-26-33.1f7cf999-0c86-4ddc-967f-df659ba2154e'
p2337
asbasbasbag61
(g77
g63
NtRp2338
(dp2339
g66
(dp2340
sg75
g71
sg68
(lp2341
g61
(g82
g63
NtRp2342
(dp2343
g66
(dp2344
g86
g87
ssg75
g2338
sg68
(lp2345
S'vars'
p2346
asbag61
(g82
g63
NtRp2347
(dp2348
g66
(dp2349
g93
g94
ssg75
g2338
sg68
(lp2350
S':'
asbag61
(g82
g63
NtRp2351
(dp2352
g66
(dp2353
sg75
g2338
sg68
(lp2354
g61
(g62
g63
NtRp2355
(dp2356
g66
(dp2357
g74
I5
ssg75
g2351
sg68
(lp2358
g61
(g70
g63
NtRp2359
(dp2360
g66
(dp2361
g74
I4
ssg75
Nsg68
(lp2362
sbasbasbasbag61
(g77
g63
NtRp2363
(dp2364
g66
(dp2365
sg75
g71
sg68
(lp2366
g61
(g82
g63
NtRp2367
(dp2368
g66
(dp2369
g86
g87
ssg75
g2363
sg68
(lp2370
S'wsgi'
p2371
asbag61
(g82
g63
NtRp2372
(dp2373
g66
(dp2374
g93
g94
ssg75
g2363
sg68
(lp2375
S':'
asbag61
(g82
g63
NtRp2376
(dp2377
g66
(dp2378
sg75
g2363
sg68
(lp2379
g61
(g62
g63
NtRp2380
(dp2381
g66
(dp2382
g74
I5
ssg75
g2376
sg68
(lp2383
g61
(g70
g63
NtRp2384
(dp2385
g66
(dp2386
g74
I4
ssg75
Nsg68
(lp2387
g61
(g77
g63
NtRp2388
(dp2389
g66
(dp2390
sg75
g2384
sg68
(lp2391
g61
(g82
g63
NtRp2392
(dp2393
g66
(dp2394
g86
g87
ssg75
g2388
sg68
(lp2395
S'environ'
p2396
asbag61
(g82
g63
NtRp2397
(dp2398
g66
(dp2399
g93
g94
ssg75
g2388
sg68
(lp2400
S':'
asbag61
(g82
g63
NtRp2401
(dp2402
g66
(dp2403
sg75
g2388
sg68
(lp2404
g61
(g62
g63
NtRp2405
(dp2406
g66
(dp2407
g74
I4
ssg75
g2401
sg68
(lp2408
g61
(g70
g63
NtRp2409
(dp2410
g66
(dp2411
g74
I3
ssg75
Nsg68
(lp2412
g61
(g77
g63
NtRp2413
(dp2414
g66
(dp2415
sg75
g2409
sg68
(lp2416
g61
(g82
g63
NtRp2417
(dp2418
g66
(dp2419
g86
g87
ssg75
g2413
sg68
(lp2420
S'HTTP_ACCEPT'
p2421
asbag61
(g82
g63
NtRp2422
(dp2423
g66
(dp2424
g93
g94
ssg75
g2413
sg68
(lp2425
S':'
asbag61
(g82
g63
NtRp2426
(dp2427
g66
(dp2428
sg75
g2413
sg68
(lp2429
g61
(g62
g63
NtRp2430
(dp2431
g66
(dp2432
g74
I3
ssg75
g2426
sg68
(lp2433
g1007
asbasbasbag61
(g77
g63
NtRp2434
(dp2435
g66
(dp2436
sg75
g2409
sg68
(lp2437
g61
(g82
g63
NtRp2438
(dp2439
g66
(dp2440
g86
g87
ssg75
g2434
sg68
(lp2441
S'HTTP_ACCEPT_ENCODING'
p2442
asbag61
(g82
g63
NtRp2443
(dp2444
g66
(dp2445
g93
g94
ssg75
g2434
sg68
(lp2446
S':'
asbag61
(g82
g63
NtRp2447
(dp2448
g66
(dp2449
sg75
g2434
sg68
(lp2450
g61
(g62
g63
NtRp2451
(dp2452
g66
(dp2453
g74
I3
ssg75
g2447
sg68
(lp2454
g1029
asbasbasbag61
(g77
g63
NtRp2455
(dp2456
g66
(dp2457
sg75
g2409
sg68
(lp2458
g61
(g82
g63
NtRp2459
(dp2460
g66
(dp2461
g86
g87
ssg75
g2455
sg68
(lp2462
S'HTTP_ACCEPT_LANGUAGE'
p2463
asbag61
(g82
g63
NtRp2464
(dp2465
g66
(dp2466
g93
g94
ssg75
g2455
sg68
(lp2467
S':'
asbag61
(g82
g63
NtRp2468
(dp2469
g66
(dp2470
sg75
g2455
sg68
(lp2471
g61
(g62
g63
NtRp2472
(dp2473
g66
(dp2474
g74
I3
ssg75
g2468
sg68
(lp2475
g1051
asbasbasbag61
(g77
g63
NtRp2476
(dp2477
g66
(dp2478
sg75
g2409
sg68
(lp2479
g61
(g82
g63
NtRp2480
(dp2481
g66
(dp2482
g86
g87
ssg75
g2476
sg68
(lp2483
S'HTTP_CONNECTION'
p2484
asbag61
(g82
g63
NtRp2485
(dp2486
g66
(dp2487
g93
g94
ssg75
g2476
sg68
(lp2488
S':'
asbag61
(g82
g63
NtRp2489
(dp2490
g66
(dp2491
sg75
g2476
sg68
(lp2492
g61
(g62
g63
NtRp2493
(dp2494
g66
(dp2495
g74
I3
ssg75
g2489
sg68
(lp2496
g1073
asbasbasbag61
(g77
g63
NtRp2497
(dp2498
g66
(dp2499
sg75
g2409
sg68
(lp2500
g61
(g82
g63
NtRp2501
(dp2502
g66
(dp2503
g86
g87
ssg75
g2497
sg68
(lp2504
S'HTTP_COOKIE'
p2505
asbag61
(g82
g63
NtRp2506
(dp2507
g66
(dp2508
g93
g94
ssg75
g2497
sg68
(lp2509
S':'
asbag61
(g82
g63
NtRp2510
(dp2511
g66
(dp2512
sg75
g2497
sg68
(lp2513
g61
(g62
g63
NtRp2514
(dp2515
g66
(dp2516
g74
I3
ssg75
g2510
sg68
(lp2517
g1095
asbasbasbag61
(g77
g63
NtRp2518
(dp2519
g66
(dp2520
sg75
g2409
sg68
(lp2521
g61
(g82
g63
NtRp2522
(dp2523
g66
(dp2524
g86
g87
ssg75
g2518
sg68
(lp2525
S'HTTP_HOST'
p2526
asbag61
(g82
g63
NtRp2527
(dp2528
g66
(dp2529
g93
g94
ssg75
g2518
sg68
(lp2530
S':'
asbag61
(g82
g63
NtRp2531
(dp2532
g66
(dp2533
sg75
g2518
sg68
(lp2534
g61
(g62
g63
NtRp2535
(dp2536
g66
(dp2537
g74
I3
ssg75
g2531
sg68
(lp2538
g1117
asbasbasbag61
(g77
g63
NtRp2539
(dp2540
g66
(dp2541
sg75
g2409
sg68
(lp2542
g61
(g82
g63
NtRp2543
(dp2544
g66
(dp2545
g86
g87
ssg75
g2539
sg68
(lp2546
S'HTTP_REFERER'
p2547
asbag61
(g82
g63
NtRp2548
(dp2549
g66
(dp2550
g93
g94
ssg75
g2539
sg68
(lp2551
S':'
asbag61
(g82
g63
NtRp2552
(dp2553
g66
(dp2554
sg75
g2539
sg68
(lp2555
g61
(g62
g63
NtRp2556
(dp2557
g66
(dp2558
g74
I3
ssg75
g2552
sg68
(lp2559
g1139
asbasbasbag61
(g77
g63
NtRp2560
(dp2561
g66
(dp2562
sg75
g2409
sg68
(lp2563
g61
(g82
g63
NtRp2564
(dp2565
g66
(dp2566
g86
g87
ssg75
g2560
sg68
(lp2567
S'HTTP_USER_AGENT'
p2568
asbag61
(g82
g63
NtRp2569
(dp2570
g66
(dp2571
g93
g94
ssg75
g2560
sg68
(lp2572
S':'
asbag61
(g82
g63
NtRp2573
(dp2574
g66
(dp2575
sg75
g2560
sg68
(lp2576
g61
(g62
g63
NtRp2577
(dp2578
g66
(dp2579
g74
I3
ssg75
g2573
sg68
(lp2580
g1161
asbasbasbag61
(g77
g63
NtRp2581
(dp2582
g66
(dp2583
sg75
g2409
sg68
(lp2584
g61
(g82
g63
NtRp2585
(dp2586
g66
(dp2587
g86
g87
ssg75
g2581
sg68
(lp2588
S'PATH_INFO'
p2589
asbag61
(g82
g63
NtRp2590
(dp2591
g66
(dp2592
g93
g94
ssg75
g2581
sg68
(lp2593
S':'
asbag61
(g82
g63
NtRp2594
(dp2595
g66
(dp2596
sg75
g2581
sg68
(lp2597
g61
(g62
g63
NtRp2598
(dp2599
g66
(dp2600
g74
I3
ssg75
g2594
sg68
(lp2601
g1225
asbasbasbag61
(g77
g63
NtRp2602
(dp2603
g66
(dp2604
sg75
g2409
sg68
(lp2605
g61
(g82
g63
NtRp2606
(dp2607
g66
(dp2608
g86
g87
ssg75
g2602
sg68
(lp2609
S'QUERY_STRING'
p2610
asbag61
(g82
g63
NtRp2611
(dp2612
g66
(dp2613
g93
g94
ssg75
g2602
sg68
(lp2614
S':'
asbag61
(g82
g63
NtRp2615
(dp2616
g66
(dp2617
sg75
g2602
sg68
(lp2618
g61
(g62
g63
NtRp2619
(dp2620
g66
(dp2621
g74
I3
ssg75
g2615
sg68
(lp2622
S''
asbasbasbag61
(g77
g63
NtRp2623
(dp2624
g66
(dp2625
sg75
g2409
sg68
(lp2626
g61
(g82
g63
NtRp2627
(dp2628
g66
(dp2629
g86
g87
ssg75
g2623
sg68
(lp2630
S'REMOTE_ADDR'
p2631
asbag61
(g82
g63
NtRp2632
(dp2633
g66
(dp2634
g93
g94
ssg75
g2623
sg68
(lp2635
S':'
asbag61
(g82
g63
NtRp2636
(dp2637
g66
(dp2638
sg75
g2623
sg68
(lp2639
g61
(g62
g63
NtRp2640
(dp2641
g66
(dp2642
g74
I3
ssg75
g2636
sg68
(lp2643
g194
asbasbasbag61
(g77
g63
NtRp2644
(dp2645
g66
(dp2646
sg75
g2409
sg68
(lp2647
g61
(g82
g63
NtRp2648
(dp2649
g66
(dp2650
g86
g87
ssg75
g2644
sg68
(lp2651
S'REMOTE_PORT'
p2652
asbag61
(g82
g63
NtRp2653
(dp2654
g66
(dp2655
g93
g94
ssg75
g2644
sg68
(lp2656
S':'
asbag61
(g82
g63
NtRp2657
(dp2658
g66
(dp2659
sg75
g2644
sg68
(lp2660
g61
(g62
g63
NtRp2661
(dp2662
g66
(dp2663
g74
I3
ssg75
g2657
sg68
(lp2664
g1289
asbasbasbag61
(g77
g63
NtRp2665
(dp2666
g66
(dp2667
sg75
g2409
sg68
(lp2668
g61
(g82
g63
NtRp2669
(dp2670
g66
(dp2671
g86
g87
ssg75
g2665
sg68
(lp2672
S'REQUEST_METHOD'
p2673
asbag61
(g82
g63
NtRp2674
(dp2675
g66
(dp2676
g93
g94
ssg75
g2665
sg68
(lp2677
S':'
asbag61
(g82
g63
NtRp2678
(dp2679
g66
(dp2680
sg75
g2665
sg68
(lp2681
g61
(g62
g63
NtRp2682
(dp2683
g66
(dp2684
g74
I3
ssg75
g2678
sg68
(lp2685
g1311
asbasbasbag61
(g77
g63
NtRp2686
(dp2687
g66
(dp2688
sg75
g2409
sg68
(lp2689
g61
(g82
g63
NtRp2690
(dp2691
g66
(dp2692
g86
g87
ssg75
g2686
sg68
(lp2693
S'SCRIPT_NAME'
p2694
asbag61
(g82
g63
NtRp2695
(dp2696
g66
(dp2697
g93
g94
ssg75
g2686
sg68
(lp2698
S':'
asbag61
(g82
g63
NtRp2699
(dp2700
g66
(dp2701
sg75
g2686
sg68
(lp2702
g61
(g62
g63
NtRp2703
(dp2704
g66
(dp2705
g74
I3
ssg75
g2699
sg68
(lp2706
S''
asbasbasbag61
(g77
g63
NtRp2707
(dp2708
g66
(dp2709
sg75
g2409
sg68
(lp2710
g61
(g82
g63
NtRp2711
(dp2712
g66
(dp2713
g86
g87
ssg75
g2707
sg68
(lp2714
S'SERVER_NAME'
p2715
asbag61
(g82
g63
NtRp2716
(dp2717
g66
(dp2718
g93
g94
ssg75
g2707
sg68
(lp2719
S':'
asbag61
(g82
g63
NtRp2720
(dp2721
g66
(dp2722
sg75
g2707
sg68
(lp2723
g61
(g62
g63
NtRp2724
(dp2725
g66
(dp2726
g74
I3
ssg75
g2720
sg68
(lp2727
g1354
asbasbasbag61
(g77
g63
NtRp2728
(dp2729
g66
(dp2730
sg75
g2409
sg68
(lp2731
g61
(g82
g63
NtRp2732
(dp2733
g66
(dp2734
g86
g87
ssg75
g2728
sg68
(lp2735
S'SERVER_PORT'
p2736
asbag61
(g82
g63
NtRp2737
(dp2738
g66
(dp2739
g93
g94
ssg75
g2728
sg68
(lp2740
S':'
asbag61
(g82
g63
NtRp2741
(dp2742
g66
(dp2743
sg75
g2728
sg68
(lp2744
g61
(g62
g63
NtRp2745
(dp2746
g66
(dp2747
g74
I3
ssg75
g2741
sg68
(lp2748
g1376
asbasbasbag61
(g77
g63
NtRp2749
(dp2750
g66
(dp2751
sg75
g2409
sg68
(lp2752
g61
(g82
g63
NtRp2753
(dp2754
g66
(dp2755
g86
g87
ssg75
g2749
sg68
(lp2756
S'SERVER_PROTOCOL'
p2757
asbag61
(g82
g63
NtRp2758
(dp2759
g66
(dp2760
g93
g94
ssg75
g2749
sg68
(lp2761
S':'
asbag61
(g82
g63
NtRp2762
(dp2763
g66
(dp2764
sg75
g2749
sg68
(lp2765
g61
(g62
g63
NtRp2766
(dp2767
g66
(dp2768
g74
I3
ssg75
g2762
sg68
(lp2769
g1398
asbasbasbag61
(g77
g63
NtRp2770
(dp2771
g66
(dp2772
sg75
g2409
sg68
(lp2773
g61
(g82
g63
NtRp2774
(dp2775
g66
(dp2776
g86
g87
ssg75
g2770
sg68
(lp2777
S'SERVER_SOFTWARE'
p2778
asbag61
(g82
g63
NtRp2779
(dp2780
g66
(dp2781
g93
g94
ssg75
g2770
sg68
(lp2782
S':'
asbag61
(g82
g63
NtRp2783
(dp2784
g66
(dp2785
sg75
g2770
sg68
(lp2786
g61
(g62
g63
NtRp2787
(dp2788
g66
(dp2789
g74
I3
ssg75
g2783
sg68
(lp2790
g1420
asbasbasbag61
(g77
g63
NtRp2791
(dp2792
g66
(dp2793
sg75
g2409
sg68
(lp2794
g61
(g82
g63
NtRp2795
(dp2796
g66
(dp2797
g86
g87
ssg75
g2791
sg68
(lp2798
S'wsgi.errors'
p2799
asbag61
(g82
g63
NtRp2800
(dp2801
g66
(dp2802
g93
g94
ssg75
g2791
sg68
(lp2803
S':'
asbag61
(g82
g63
NtRp2804
(dp2805
g66
(dp2806
sg75
g2791
sg68
(lp2807
g61
(g62
g63
NtRp2808
(dp2809
g66
(dp2810
g74
I3
ssg75
g2804
sg68
(lp2811
S"<open file '<stderr>', mode 'w' at 0xb72ec0d0>"
p2812
asbasbasbag61
(g77
g63
NtRp2813
(dp2814
g66
(dp2815
sg75
g2409
sg68
(lp2816
g61
(g82
g63
NtRp2817
(dp2818
g66
(dp2819
g86
g87
ssg75
g2813
sg68
(lp2820
S'wsgi.file_wrapper'
p2821
asbag61
(g82
g63
NtRp2822
(dp2823
g66
(dp2824
g93
g94
ssg75
g2813
sg68
(lp2825
S':'
asbag61
(g82
g63
NtRp2826
(dp2827
g66
(dp2828
sg75
g2813
sg68
(lp2829
g61
(g62
g63
NtRp2830
(dp2831
g66
(dp2832
g74
I3
ssg75
g2826
sg68
(lp2833
S'<class wsgiref.util.FileWrapper at 0x92bde3c>'
p2834
asbasbasbag61
(g77
g63
NtRp2835
(dp2836
g66
(dp2837
sg75
g2409
sg68
(lp2838
g61
(g82
g63
NtRp2839
(dp2840
g66
(dp2841
g86
g87
ssg75
g2835
sg68
(lp2842
S'wsgi.input'
p2843
asbag61
(g82
g63
NtRp2844
(dp2845
g66
(dp2846
g93
g94
ssg75
g2835
sg68
(lp2847
S':'
asbag61
(g82
g63
NtRp2848
(dp2849
g66
(dp2850
sg75
g2835
sg68
(lp2851
g61
(g62
g63
NtRp2852
(dp2853
g66
(dp2854
g74
I3
ssg75
g2848
sg68
(lp2855
S'<cStringIO.StringO object at 0x93ef780>'
p2856
asbasbasbag61
(g77
g63
NtRp2857
(dp2858
g66
(dp2859
sg75
g2409
sg68
(lp2860
g61
(g82
g63
NtRp2861
(dp2862
g66
(dp2863
g86
g87
ssg75
g2857
sg68
(lp2864
S'wsgi.multiprocess'
p2865
asbag61
(g82
g63
NtRp2866
(dp2867
g66
(dp2868
g93
g94
ssg75
g2857
sg68
(lp2869
S':'
asbag61
(g82
g63
NtRp2870
(dp2871
g66
(dp2872
sg75
g2857
sg68
(lp2873
g61
(g62
g63
NtRp2874
(dp2875
g66
(dp2876
g74
I3
ssg75
g2870
sg68
(lp2877
g104
asbasbasbag61
(g77
g63
NtRp2878
(dp2879
g66
(dp2880
sg75
g2409
sg68
(lp2881
g61
(g82
g63
NtRp2882
(dp2883
g66
(dp2884
g86
g87
ssg75
g2878
sg68
(lp2885
S'wsgi.multithread'
p2886
asbag61
(g82
g63
NtRp2887
(dp2888
g66
(dp2889
g93
g94
ssg75
g2878
sg68
(lp2890
S':'
asbag61
(g82
g63
NtRp2891
(dp2892
g66
(dp2893
sg75
g2878
sg68
(lp2894
g61
(g62
g63
NtRp2895
(dp2896
g66
(dp2897
g74
I3
ssg75
g2891
sg68
(lp2898
g1660
asbasbasbag61
(g77
g63
NtRp2899
(dp2900
g66
(dp2901
sg75
g2409
sg68
(lp2902
g61
(g82
g63
NtRp2903
(dp2904
g66
(dp2905
g86
g87
ssg75
g2899
sg68
(lp2906
S'wsgi.run_once'
p2907
asbag61
(g82
g63
NtRp2908
(dp2909
g66
(dp2910
g93
g94
ssg75
g2899
sg68
(lp2911
S':'
asbag61
(g82
g63
NtRp2912
(dp2913
g66
(dp2914
sg75
g2899
sg68
(lp2915
g61
(g62
g63
NtRp2916
(dp2917
g66
(dp2918
g74
I3
ssg75
g2912
sg68
(lp2919
g104
asbasbasbag61
(g77
g63
NtRp2920
(dp2921
g66
(dp2922
sg75
g2409
sg68
(lp2923
g61
(g82
g63
NtRp2924
(dp2925
g66
(dp2926
g86
g87
ssg75
g2920
sg68
(lp2927
S'wsgi.url_scheme'
p2928
asbag61
(g82
g63
NtRp2929
(dp2930
g66
(dp2931
g93
g94
ssg75
g2920
sg68
(lp2932
S':'
asbag61
(g82
g63
NtRp2933
(dp2934
g66
(dp2935
sg75
g2920
sg68
(lp2936
g61
(g62
g63
NtRp2937
(dp2938
g66
(dp2939
g74
I3
ssg75
g2933
sg68
(lp2940
g1703
asbasbasbag61
(g77
g63
NtRp2941
(dp2942
g66
(dp2943
sg75
g2409
sg68
(lp2944
g61
(g82
g63
NtRp2945
(dp2946
g66
(dp2947
g86
g87
ssg75
g2941
sg68
(lp2948
S'wsgi.version'
p2949
asbag61
(g82
g63
NtRp2950
(dp2951
g66
(dp2952
g93
g94
ssg75
g2941
sg68
(lp2953
S':'
asbag61
(g82
g63
NtRp2954
(dp2955
g66
(dp2956
sg75
g2941
sg68
(lp2957
g61
(g62
g63
NtRp2958
(dp2959
g66
(dp2960
g74
I3
ssg75
g2954
sg68
(lp2961
S'1'
asbasbasbasbasbasbasbasbasbasbasbasbasbsS'frames'
p2962
(lp2963
(dp2964
S'file'
p2965
S'/home/anu/Desktop/M12/ssad m12/web2py/gluon/restricted.py'
p2966
sS'dump'
p2967
(dp2968
S'environment'
p2969
S"{'A': <class 'gluon.html.A'>, 'Auth': <class 'gluon.tools.Auth'>, 'B': <class 'gluon.html.B'>, 'BEAUTIFY': <class 'gluon.html.BEAUTIFY'>, 'BODY': <class 'gluon.html.BODY'>, 'BR': <class 'gluon.html.BR'>, 'BUTTON': <class 'gluon.html.BUTTON'>, 'CAT': <class 'gluon.html.CAT'>, 'CENTER': <class 'gluon.html.CENTER'>, 'CLEANUP': <class 'gluon.validators.CLEANUP'>, ...}"
p2970
sS'ccode'
p2971
S'<code object <module> at 0xaf113f08, file "/home.../applications/PhotoUpload/models/db.py", line 12>'
p2972
ssS'lnum'
p2973
I205
sS'lines'
p2974
(dp2975
I200
S'    try:'
p2976
sI201
S'        if type(code) == types.CodeType:'
p2977
sI202
S'            ccode = code'
p2978
sI203
S'        else:'
p2979
sI204
S'            ccode = compile2(code,layer)'
p2980
sI205
S'        exec ccode in environment'
p2981
sI206
S'    except HTTP:'
p2982
sI207
S'        raise'
p2983
sI208
S'    except RestrictedError:'
p2984
sI209
S'        # do not encapsulate (obfuscate) the original RestrictedError'
p2985
ssS'call'
p2986
S'(code="# -*- coding: utf-8 -*-\\n\\n#######################... )\\ndb.define_table(\'commentt\',Field(\'Comment\') )\\n", environment={\'A\': <class \'gluon.html.A\'>, \'Auth\': <class \'gluon.tools.Auth\'>, \'B\': <class \'gluon.html.B\'>, \'BEAUTIFY\': <class \'gluon.html.BEAUTIFY\'>, \'BODY\': <class \'gluon.html.BODY\'>, \'BR\': <class \'gluon.html.BR\'>, \'BUTTON\': <class \'gluon.html.BUTTON\'>, \'CAT\': <class \'gluon.html.CAT\'>, \'CENTER\': <class \'gluon.html.CENTER\'>, \'CLEANUP\': <class \'gluon.validators.CLEANUP\'>, ...}, layer=\'/home/anu/Desktop/M12/ssad m12/web2py/applications/PhotoUpload/models/db.py\')'
p2987
sS'func'
p2988
S'restricted'
p2989
sa(dp2990
g2965
S'/home/anu/Desktop/M12/ssad m12/web2py/applications/PhotoUpload/models/db.py'
p2991
sg2967
(dp2992
S'Field'
p2993
S"<class 'gluon.dal.Field'>"
p2994
sS'db.define_table'
p2995
S"<bound method DAL.define_table of <DAL {'auth_ev...key': <gluon.dal.Field object at 0xb4feeeac>}>}>>"
p2996
sS'db'
p2997
S"<DAL {'auth_event': <Table {'origin': <gluon.dal..._key': <gluon.dal.Field object at 0xb4feeeac>}>}>"
p2998
ssg2973
I99
sg2974
(dp2999
I96
S"    Field('uId',db.auth_user,requires=IS_IN_DB(db,'auth_user.id','auth_user.first_name'))"
p3000
sI97
S'    )'
p3001
sI98
S''
sI99
S"db.define_table('like',Field('Like') )"
p3002
sI100
S"db.define_table('commentt',Field('Comment') )"
p3003
sI91
S"    Field('comment')"
p3004
sI92
S'    )'
p3005
sI93
S''
sI94
S"db.define_table('likes',"
p3006
sI95
S"    Field('pId',db.pictures,requires=IS_IN_DB(db,'pictures.id','pictures.title')),"
p3007
ssg2986
S'()'
p3008
sg2988
S'<module>'
p3009
sa(dp3010
g2965
S'/home/anu/Desktop/M12/ssad m12/web2py/gluon/dal.py'
p3011
sg2967
(dp3012
S'polymodel'
p3013
S'None'
p3014
ssg2973
I6320
sg2974
(dp3015
I6315
S"        if migrate or self._adapter.dbengine=='google:datastore':"
p3016
sI6316
S'            try:'
p3017
sI6317
S'                sql_locker.acquire()'
p3018
sI6318
S'                self._adapter.create_table(t,migrate=migrate,'
p3019
sI6319
S'                                           fake_migrate=fake_migrate,'
p3020
sI6320
S'                                           polymodel=polymodel)'
p3021
sI6321
S'            finally:'
p3022
sI6322
S'                sql_locker.release()'
p3023
sI6323
S'        else:'
p3024
sI6324
S'            t._dbt = None'
p3025
ssg2986
S"(self=<DAL {'auth_event': <Table {'origin': <gluon.dal..._key': <gluon.dal.Field object at 0xb4feeeac>}>}>, tablename='like', *fields=(<gluon.dal.Field object>,), **args={})"
p3026
sg2988
S'define_table'
p3027
sa(dp3028
g2965
S'/home/anu/Desktop/M12/ssad m12/web2py/gluon/dal.py'
p3029
sg2967
(dp3030
S'query'
p3031
S"'CREATE TABLE like(\\n    id INTEGER PRIMARY KEY AUTOINCREMENT,\\n    Like CHAR(512)\\n);'"
p3032
sS'self'
p3033
S'<gluon.dal.SQLiteAdapter object>'
p3034
sS'table'
p3035
S"<Table {'ALL': <gluon.dal.SQLALL object at 0x969...c>, 'id': <gluon.dal.Field object at 0x969280c>}>"
p3036
sS'self.create_sequence_and_triggers'
p3037
S'<bound method SQLiteAdapter.create_sequence_and_triggers of <gluon.dal.SQLiteAdapter object>>'
p3038
ssg2973
I719
sg2974
(dp3039
I714
S'            if table._dbt:'
p3040
sI715
S"                logfile.write('timestamp: %s\\n'"
p3041
sI716
S'                               % datetime.datetime.today().isoformat())'
p3042
sI717
S"                logfile.write(query + '\\n')"
p3043
sI718
S'            if not fake_migrate:'
p3044
sI719
S'                self.create_sequence_and_triggers(query,table)'
p3045
sI720
S'                table._db.commit()'
p3046
sI721
S'            if table._dbt:'
p3047
sI722
S"                tfile = self.file_open(table._dbt, 'w')"
p3048
sI723
S'                cPickle.dump(sql_fields, tfile)'
p3049
ssg2986
S"(self=<gluon.dal.SQLiteAdapter object>, table=<Table {'ALL': <gluon.dal.SQLALL object at 0x969...c>, 'id': <gluon.dal.Field object at 0x969280c>}>, migrate=True, fake_migrate=False, polymodel=None)"
p3050
sg2988
S'create_table'
p3051
sa(dp3052
g2965
S'/home/anu/Desktop/M12/ssad m12/web2py/gluon/dal.py'
p3053
sg2967
(dp3054
S'query'
p3055
S"'CREATE TABLE like(\\n    id INTEGER PRIMARY KEY AUTOINCREMENT,\\n    Like CHAR(512)\\n);'"
p3056
sS'self'
p3057
S'<gluon.dal.SQLiteAdapter object>'
p3058
sS'self.execute'
p3059
S'<bound method SQLiteAdapter.execute of <gluon.dal.SQLiteAdapter object>>'
p3060
ssg2973
I1381
sg2974
(dp3061
I1376
S''
sI1377
S'    def constraint_name(self, table, fieldname):'
p3062
sI1378
S"        return '%s_%s__constraint' % (table,fieldname)"
p3063
sI1379
S''
sI1380
S'    def create_sequence_and_triggers(self, query, table, **args):'
p3064
sI1381
S'        self.execute(query)'
p3065
sI1382
S''
sI1383
S'    def log_execute(self, *a, **b):'
p3066
sI1384
S'        self.db._lastsql = a[0]'
p3067
sI1385
S'        t0 = time.time()'
p3068
ssg2986
S"(self=<gluon.dal.SQLiteAdapter object>, query='CREATE TABLE like(\\n    id INTEGER PRIMARY KEY AUTOINCREMENT,\\n    Like CHAR(512)\\n);', table=<Table {'ALL': <gluon.dal.SQLALL object at 0x969...c>, 'id': <gluon.dal.Field object at 0x969280c>}>, **args={})"
p3069
sg2988
S'create_sequence_and_triggers'
p3070
sa(dp3071
g2965
S'/home/anu/Desktop/M12/ssad m12/web2py/gluon/dal.py'
p3072
sg2967
(dp3073
S'a'
S"('CREATE TABLE like(\\n    id INTEGER PRIMARY KEY AUTOINCREMENT,\\n    Like CHAR(512)\\n);',)"
p3074
sS'self'
p3075
S'<gluon.dal.SQLiteAdapter object>'
p3076
sS'b'
g21
sS'self.log_execute'
p3077
S'<bound method SQLiteAdapter.log_execute of <gluon.dal.SQLiteAdapter object>>'
p3078
ssg2973
I1392
sg2974
(dp3079
I1387
S'        self.db._timings.append((a[0],time.time()-t0))'
p3080
sI1388
S'        del self.db._timings[:-TIMINGSSIZE]'
p3081
sI1389
S'        return ret'
p3082
sI1390
S''
sI1391
S'    def execute(self, *a, **b):'
p3083
sI1392
S'        return self.log_execute(*a, **b)'
p3084
sI1393
S''
sI1394
S'    def represent(self, obj, fieldtype):'
p3085
sI1395
S'        if isinstance(obj, CALLABLETYPES):'
p3086
sI1396
S'            obj = obj()'
p3087
ssg2986
S"(self=<gluon.dal.SQLiteAdapter object>, *a=('CREATE TABLE like(\\n    id INTEGER PRIMARY KEY AUTOINCREMENT,\\n    Like CHAR(512)\\n);',), **b={})"
p3088
sg2988
S'execute'
p3089
sa(dp3090
g2965
S'/home/anu/Desktop/M12/ssad m12/web2py/gluon/dal.py'
p3091
sg2967
(dp3092
S'a'
S"('CREATE TABLE like(\\n    id INTEGER PRIMARY KEY AUTOINCREMENT,\\n    Like CHAR(512)\\n);',)"
p3093
sS'b'
g21
sS'self'
p3094
S'<gluon.dal.SQLiteAdapter object>'
p3095
sS'ret'
p3096
S'undefined'
p3097
sS'self.cursor'
p3098
S'<sqlite3.Cursor object>'
p3099
sS'self.cursor.execute'
p3100
S'<built-in method execute of sqlite3.Cursor object>'
p3101
ssg2973
I1386
sg2974
(dp3102
I1381
S'        self.execute(query)'
p3103
sI1382
S''
sI1383
S'    def log_execute(self, *a, **b):'
p3104
sI1384
S'        self.db._lastsql = a[0]'
p3105
sI1385
S'        t0 = time.time()'
p3106
sI1386
S'        ret = self.cursor.execute(*a, **b)'
p3107
sI1387
S'        self.db._timings.append((a[0],time.time()-t0))'
p3108
sI1388
S'        del self.db._timings[:-TIMINGSSIZE]'
p3109
sI1389
S'        return ret'
p3110
sI1390
S''
ssg2986
S"(self=<gluon.dal.SQLiteAdapter object>, *a=('CREATE TABLE like(\\n    id INTEGER PRIMARY KEY AUTOINCREMENT,\\n    Like CHAR(512)\\n);',), **b={})"
p3111
sg2988
S'log_execute'
p3112
sasS'pyver'
p3113
S'Python 2.7.3: /usr/bin/python'
p3114
sS'session'
p3115
g61
(g62
g63
NtRp3116
(dp3117
g66
(dp3118
sg68
(lp3119
g61
(g70
g63
NtRp3120
(dp3121
g66
(dp3122
g74
I5
ssg75
Nsg68
(lp3123
g61
(g77
g63
NtRp3124
(dp3125
g66
(dp3126
sg75
g3120
sg68
(lp3127
g61
(g82
g63
NtRp3128
(dp3129
g66
(dp3130
g86
g87
ssg75
g3124
sg68
(lp3131
S'auth'
p3132
asbag61
(g82
g63
NtRp3133
(dp3134
g66
(dp3135
g93
g94
ssg75
g3124
sg68
(lp3136
S':'
asbag61
(g82
g63
NtRp3137
(dp3138
g66
(dp3139
sg75
g3124
sg68
(lp3140
g61
(g62
g63
NtRp3141
(dp3142
g66
(dp3143
g74
I5
ssg75
g3137
sg68
(lp3144
g61
(g70
g63
NtRp3145
(dp3146
g66
(dp3147
g74
I4
ssg75
Nsg68
(lp3148
g61
(g77
g63
NtRp3149
(dp3150
g66
(dp3151
sg75
g3145
sg68
(lp3152
g61
(g82
g63
NtRp3153
(dp3154
g66
(dp3155
g86
g87
ssg75
g3149
sg68
(lp3156
S'expiration'
p3157
asbag61
(g82
g63
NtRp3158
(dp3159
g66
(dp3160
g93
g94
ssg75
g3149
sg68
(lp3161
S':'
asbag61
(g82
g63
NtRp3162
(dp3163
g66
(dp3164
sg75
g3149
sg68
(lp3165
g61
(g62
g63
NtRp3166
(dp3167
g66
(dp3168
g74
I4
ssg75
g3162
sg68
(lp3169
S'3600'
p3170
asbasbasbag61
(g77
g63
NtRp3171
(dp3172
g66
(dp3173
sg75
g3145
sg68
(lp3174
g61
(g82
g63
NtRp3175
(dp3176
g66
(dp3177
g86
g87
ssg75
g3171
sg68
(lp3178
S'hmac_key'
p3179
asbag61
(g82
g63
NtRp3180
(dp3181
g66
(dp3182
g93
g94
ssg75
g3171
sg68
(lp3183
S':'
asbag61
(g82
g63
NtRp3184
(dp3185
g66
(dp3186
sg75
g3171
sg68
(lp3187
g61
(g62
g63
NtRp3188
(dp3189
g66
(dp3190
g74
I4
ssg75
g3184
sg68
(lp3191
S'a9ba9a4e-94dd-4a40-83cf-48492804bb39'
p3192
asbasbasbag61
(g77
g63
NtRp3193
(dp3194
g66
(dp3195
sg75
g3145
sg68
(lp3196
g61
(g82
g63
NtRp3197
(dp3198
g66
(dp3199
g86
g87
ssg75
g3193
sg68
(lp3200
S'last_visit'
p3201
asbag61
(g82
g63
NtRp3202
(dp3203
g66
(dp3204
g93
g94
ssg75
g3193
sg68
(lp3205
S':'
asbag61
(g82
g63
NtRp3206
(dp3207
g66
(dp3208
sg75
g3193
sg68
(lp3209
g61
(g62
g63
NtRp3210
(dp3211
g66
(dp3212
g74
I4
ssg75
g3206
sg68
(lp3213
S'datetime.datetime(2012, 8, 31, 21, 25, 34, 566238)'
p3214
asbasbasbag61
(g77
g63
NtRp3215
(dp3216
g66
(dp3217
sg75
g3145
sg68
(lp3218
g61
(g82
g63
NtRp3219
(dp3220
g66
(dp3221
g86
g87
ssg75
g3215
sg68
(lp3222
S'remember'
p3223
asbag61
(g82
g63
NtRp3224
(dp3225
g66
(dp3226
g93
g94
ssg75
g3215
sg68
(lp3227
S':'
asbag61
(g82
g63
NtRp3228
(dp3229
g66
(dp3230
sg75
g3215
sg68
(lp3231
g61
(g62
g63
NtRp3232
(dp3233
g66
(dp3234
g74
I4
ssg75
g3228
sg68
(lp3235
g104
asbasbasbag61
(g77
g63
NtRp3236
(dp3237
g66
(dp3238
sg75
g3145
sg68
(lp3239
g61
(g82
g63
NtRp3240
(dp3241
g66
(dp3242
g86
g87
ssg75
g3236
sg68
(lp3243
S'user'
p3244
asbag61
(g82
g63
NtRp3245
(dp3246
g66
(dp3247
g93
g94
ssg75
g3236
sg68
(lp3248
S':'
asbag61
(g82
g63
NtRp3249
(dp3250
g66
(dp3251
sg75
g3236
sg68
(lp3252
g61
(g62
g63
NtRp3253
(dp3254
g66
(dp3255
g74
I4
ssg75
g3249
sg68
(lp3256
g61
(g70
g63
NtRp3257
(dp3258
g66
(dp3259
g74
I3
ssg75
Nsg68
(lp3260
g61
(g77
g63
NtRp3261
(dp3262
g66
(dp3263
sg75
g3257
sg68
(lp3264
g61
(g82
g63
NtRp3265
(dp3266
g66
(dp3267
g86
g87
ssg75
g3261
sg68
(lp3268
S'email'
p3269
asbag61
(g82
g63
NtRp3270
(dp3271
g66
(dp3272
g93
g94
ssg75
g3261
sg68
(lp3273
S':'
asbag61
(g82
g63
NtRp3274
(dp3275
g66
(dp3276
sg75
g3261
sg68
(lp3277
g61
(g62
g63
NtRp3278
(dp3279
g66
(dp3280
g74
I3
ssg75
g3274
sg68
(lp3281
S'inumella.anupriya@gmail.com'
p3282
asbasbasbag61
(g77
g63
NtRp3283
(dp3284
g66
(dp3285
sg75
g3257
sg68
(lp3286
g61
(g82
g63
NtRp3287
(dp3288
g66
(dp3289
g86
g87
ssg75
g3283
sg68
(lp3290
S'first_name'
p3291
asbag61
(g82
g63
NtRp3292
(dp3293
g66
(dp3294
g93
g94
ssg75
g3283
sg68
(lp3295
S':'
asbag61
(g82
g63
NtRp3296
(dp3297
g66
(dp3298
sg75
g3283
sg68
(lp3299
g61
(g62
g63
NtRp3300
(dp3301
g66
(dp3302
g74
I3
ssg75
g3296
sg68
(lp3303
S'Anu'
p3304
asbasbasbag61
(g77
g63
NtRp3305
(dp3306
g66
(dp3307
sg75
g3257
sg68
(lp3308
g61
(g82
g63
NtRp3309
(dp3310
g66
(dp3311
g86
g87
ssg75
g3305
sg68
(lp3312
S'id'
p3313
asbag61
(g82
g63
NtRp3314
(dp3315
g66
(dp3316
g93
g94
ssg75
g3305
sg68
(lp3317
S':'
asbag61
(g82
g63
NtRp3318
(dp3319
g66
(dp3320
sg75
g3305
sg68
(lp3321
g61
(g62
g63
NtRp3322
(dp3323
g66
(dp3324
g74
I3
ssg75
g3318
sg68
(lp3325
S'3'
asbasbasbag61
(g77
g63
NtRp3326
(dp3327
g66
(dp3328
sg75
g3257
sg68
(lp3329
g61
(g82
g63
NtRp3330
(dp3331
g66
(dp3332
g86
g87
ssg75
g3326
sg68
(lp3333
S'last_name'
p3334
asbag61
(g82
g63
NtRp3335
(dp3336
g66
(dp3337
g93
g94
ssg75
g3326
sg68
(lp3338
S':'
asbag61
(g82
g63
NtRp3339
(dp3340
g66
(dp3341
sg75
g3326
sg68
(lp3342
g61
(g62
g63
NtRp3343
(dp3344
g66
(dp3345
g74
I3
ssg75
g3339
sg68
(lp3346
S'I'
asbasbasbag61
(g77
g63
NtRp3347
(dp3348
g66
(dp3349
sg75
g3257
sg68
(lp3350
g61
(g82
g63
NtRp3351
(dp3352
g66
(dp3353
g86
g87
ssg75
g3347
sg68
(lp3354
S'password'
p3355
asbag61
(g82
g63
NtRp3356
(dp3357
g66
(dp3358
g93
g94
ssg75
g3347
sg68
(lp3359
S':'
asbag61
(g82
g63
NtRp3360
(dp3361
g66
(dp3362
sg75
g3347
sg68
(lp3363
g61
(g62
g63
NtRp3364
(dp3365
g66
(dp3366
g74
I3
ssg75
g3360
sg68
(lp3367
S'05197b267c6d6958fabd507893823629'
p3368
asbasbasbag61
(g77
g63
NtRp3369
(dp3370
g66
(dp3371
sg75
g3257
sg68
(lp3372
g61
(g82
g63
NtRp3373
(dp3374
g66
(dp3375
g86
g87
ssg75
g3369
sg68
(lp3376
S'registration_id'
p3377
asbag61
(g82
g63
NtRp3378
(dp3379
g66
(dp3380
g93
g94
ssg75
g3369
sg68
(lp3381
S':'
asbag61
(g82
g63
NtRp3382
(dp3383
g66
(dp3384
sg75
g3369
sg68
(lp3385
g61
(g62
g63
NtRp3386
(dp3387
g66
(dp3388
g74
I3
ssg75
g3382
sg68
(lp3389
S''
asbasbasbag61
(g77
g63
NtRp3390
(dp3391
g66
(dp3392
sg75
g3257
sg68
(lp3393
g61
(g82
g63
NtRp3394
(dp3395
g66
(dp3396
g86
g87
ssg75
g3390
sg68
(lp3397
S'registration_key'
p3398
asbag61
(g82
g63
NtRp3399
(dp3400
g66
(dp3401
g93
g94
ssg75
g3390
sg68
(lp3402
S':'
asbag61
(g82
g63
NtRp3403
(dp3404
g66
(dp3405
sg75
g3390
sg68
(lp3406
g61
(g62
g63
NtRp3407
(dp3408
g66
(dp3409
g74
I3
ssg75
g3403
sg68
(lp3410
S''
asbasbasbag61
(g77
g63
NtRp3411
(dp3412
g66
(dp3413
sg75
g3257
sg68
(lp3414
g61
(g82
g63
NtRp3415
(dp3416
g66
(dp3417
g86
g87
ssg75
g3411
sg68
(lp3418
S'reset_password_key'
p3419
asbag61
(g82
g63
NtRp3420
(dp3421
g66
(dp3422
g93
g94
ssg75
g3411
sg68
(lp3423
S':'
asbag61
(g82
g63
NtRp3424
(dp3425
g66
(dp3426
sg75
g3411
sg68
(lp3427
g61
(g62
g63
NtRp3428
(dp3429
g66
(dp3430
g74
I3
ssg75
g3424
sg68
(lp3431
S''
asbasbasbasbasbasbasbag61
(g77
g63
NtRp3432
(dp3433
g66
(dp3434
sg75
g3145
sg68
(lp3435
g61
(g82
g63
NtRp3436
(dp3437
g66
(dp3438
g86
g87
ssg75
g3432
sg68
(lp3439
S'user_groups'
p3440
asbag61
(g82
g63
NtRp3441
(dp3442
g66
(dp3443
g93
g94
ssg75
g3432
sg68
(lp3444
S':'
asbag61
(g82
g63
NtRp3445
(dp3446
g66
(dp3447
sg75
g3432
sg68
(lp3448
g61
(g62
g63
NtRp3449
(dp3450
g66
(dp3451
g74
I4
ssg75
g3445
sg68
(lp3452
g61
(g70
g63
NtRp3453
(dp3454
g66
(dp3455
g74
I3
ssg75
Nsg68
(lp3456
g61
(g77
g63
NtRp3457
(dp3458
g66
(dp3459
sg75
g3453
sg68
(lp3460
g61
(g82
g63
NtRp3461
(dp3462
g66
(dp3463
g86
g87
ssg75
g3457
sg68
(lp3464
S'3'
asbag61
(g82
g63
NtRp3465
(dp3466
g66
(dp3467
g93
g94
ssg75
g3457
sg68
(lp3468
S':'
asbag61
(g82
g63
NtRp3469
(dp3470
g66
(dp3471
sg75
g3457
sg68
(lp3472
g61
(g62
g63
NtRp3473
(dp3474
g66
(dp3475
g74
I3
ssg75
g3469
sg68
(lp3476
S'user_3'
p3477
asbasbasbasbasbasbasbasbasbasbasbag61
(g77
g63
NtRp3478
(dp3479
g66
(dp3480
sg75
g3120
sg68
(lp3481
g61
(g82
g63
NtRp3482
(dp3483
g66
(dp3484
g86
g87
ssg75
g3478
sg68
(lp3485
S'last_query'
p3486
asbag61
(g82
g63
NtRp3487
(dp3488
g66
(dp3489
g93
g94
ssg75
g3478
sg68
(lp3490
S':'
asbag61
(g82
g63
NtRp3491
(dp3492
g66
(dp3493
sg75
g3478
sg68
(lp3494
g61
(g62
g63
NtRp3495
(dp3496
g66
(dp3497
g74
I5
ssg75
g3491
sg68
(lp3498
S'db.comments.id>0'
p3499
asbasbasbasbasbsS'etype'
p3500
S"<class 'sqlite3.OperationalError'>"
p3501
sS'date'
p3502
S'Fri Aug 31 21:26:33 2012'
p3503
sS'response'
p3504
g61
(g62
g63
NtRp3505
(dp3506
g66
(dp3507
sg68
(lp3508
g61
(g70
g63
NtRp3509
(dp3510
g66
(dp3511
g74
I5
ssg75
Nsg68
(lp3512
g61
(g77
g63
NtRp3513
(dp3514
g66
(dp3515
sg75
g3509
sg68
(lp3516
g61
(g82
g63
NtRp3517
(dp3518
g66
(dp3519
g86
g87
ssg75
g3513
sg68
(lp3520
g159
asbag61
(g82
g63
NtRp3521
(dp3522
g66
(dp3523
g93
g94
ssg75
g3513
sg68
(lp3524
S':'
asbag61
(g82
g63
NtRp3525
(dp3526
g66
(dp3527
sg75
g3513
sg68
(lp3528
g61
(g62
g63
NtRp3529
(dp3530
g66
(dp3531
g74
I5
ssg75
g3525
sg68
(lp3532
S'<cStringIO.StringO object at 0xaf591280>'
p3533
asbasbasbag61
(g77
g63
NtRp3534
(dp3535
g66
(dp3536
sg75
g3509
sg68
(lp3537
g61
(g82
g63
NtRp3538
(dp3539
g66
(dp3540
g86
g87
ssg75
g3534
sg68
(lp3541
g225
asbag61
(g82
g63
NtRp3542
(dp3543
g66
(dp3544
g93
g94
ssg75
g3534
sg68
(lp3545
S':'
asbag61
(g82
g63
NtRp3546
(dp3547
g66
(dp3548
sg75
g3534
sg68
(lp3549
g61
(g62
g63
NtRp3550
(dp3551
g66
(dp3552
g74
I5
ssg75
g3546
sg68
(lp3553
g61
(g70
g63
NtRp3554
(dp3555
g66
(dp3556
g74
I4
ssg75
Nsg68
(lp3557
g61
(g77
g63
NtRp3558
(dp3559
g66
(dp3560
sg75
g3554
sg68
(lp3561
g61
(g82
g63
NtRp3562
(dp3563
g66
(dp3564
g86
g87
ssg75
g3558
sg68
(lp3565
S'session_id_photoupload'
p3566
asbag61
(g82
g63
NtRp3567
(dp3568
g66
(dp3569
g93
g94
ssg75
g3558
sg68
(lp3570
S':'
asbag61
(g82
g63
NtRp3571
(dp3572
g66
(dp3573
sg75
g3558
sg68
(lp3574
g61
(g62
g63
NtRp3575
(dp3576
g66
(dp3577
g74
I4
ssg75
g3571
sg68
(lp3578
g61
(g70
g63
NtRp3579
(dp3580
g66
(dp3581
g74
I3
ssg75
Nsg68
(lp3582
g61
(g77
g63
NtRp3583
(dp3584
g66
(dp3585
sg75
g3579
sg68
(lp3586
g61
(g82
g63
NtRp3587
(dp3588
g66
(dp3589
g86
g87
ssg75
g3583
sg68
(lp3590
g275
asbag61
(g82
g63
NtRp3591
(dp3592
g66
(dp3593
g93
g94
ssg75
g3583
sg68
(lp3594
S':'
asbag61
(g82
g63
NtRp3595
(dp3596
g66
(dp3597
sg75
g3583
sg68
(lp3598
g61
(g62
g63
NtRp3599
(dp3600
g66
(dp3601
g74
I3
ssg75
g3595
sg68
(lp3602
S''
asbasbasbag61
(g77
g63
NtRp3603
(dp3604
g66
(dp3605
sg75
g3579
sg68
(lp3606
g61
(g82
g63
NtRp3607
(dp3608
g66
(dp3609
g86
g87
ssg75
g3603
sg68
(lp3610
g296
asbag61
(g82
g63
NtRp3611
(dp3612
g66
(dp3613
g93
g94
ssg75
g3603
sg68
(lp3614
S':'
asbag61
(g82
g63
NtRp3615
(dp3616
g66
(dp3617
sg75
g3603
sg68
(lp3618
g61
(g62
g63
NtRp3619
(dp3620
g66
(dp3621
g74
I3
ssg75
g3615
sg68
(lp3622
S''
asbasbasbag61
(g77
g63
NtRp3623
(dp3624
g66
(dp3625
sg75
g3579
sg68
(lp3626
g61
(g82
g63
NtRp3627
(dp3628
g66
(dp3629
g86
g87
ssg75
g3623
sg68
(lp3630
g317
asbag61
(g82
g63
NtRp3631
(dp3632
g66
(dp3633
g93
g94
ssg75
g3623
sg68
(lp3634
S':'
asbag61
(g82
g63
NtRp3635
(dp3636
g66
(dp3637
sg75
g3623
sg68
(lp3638
g61
(g62
g63
NtRp3639
(dp3640
g66
(dp3641
g74
I3
ssg75
g3635
sg68
(lp3642
S''
asbasbasbag61
(g77
g63
NtRp3643
(dp3644
g66
(dp3645
sg75
g3579
sg68
(lp3646
g61
(g82
g63
NtRp3647
(dp3648
g66
(dp3649
g86
g87
ssg75
g3643
sg68
(lp3650
g338
asbag61
(g82
g63
NtRp3651
(dp3652
g66
(dp3653
g93
g94
ssg75
g3643
sg68
(lp3654
S':'
asbag61
(g82
g63
NtRp3655
(dp3656
g66
(dp3657
sg75
g3643
sg68
(lp3658
g61
(g62
g63
NtRp3659
(dp3660
g66
(dp3661
g74
I3
ssg75
g3655
sg68
(lp3662
S''
asbasbasbag61
(g77
g63
NtRp3663
(dp3664
g66
(dp3665
sg75
g3579
sg68
(lp3666
g61
(g82
g63
NtRp3667
(dp3668
g66
(dp3669
g86
g87
ssg75
g3663
sg68
(lp3670
g359
asbag61
(g82
g63
NtRp3671
(dp3672
g66
(dp3673
g93
g94
ssg75
g3663
sg68
(lp3674
S':'
asbag61
(g82
g63
NtRp3675
(dp3676
g66
(dp3677
sg75
g3663
sg68
(lp3678
g61
(g62
g63
NtRp3679
(dp3680
g66
(dp3681
g74
I3
ssg75
g3675
sg68
(lp3682
S''
asbasbasbag61
(g77
g63
NtRp3683
(dp3684
g66
(dp3685
sg75
g3579
sg68
(lp3686
g61
(g82
g63
NtRp3687
(dp3688
g66
(dp3689
g86
g87
ssg75
g3683
sg68
(lp3690
g380
asbag61
(g82
g63
NtRp3691
(dp3692
g66
(dp3693
g93
g94
ssg75
g3683
sg68
(lp3694
S':'
asbag61
(g82
g63
NtRp3695
(dp3696
g66
(dp3697
sg75
g3683
sg68
(lp3698
g61
(g62
g63
NtRp3699
(dp3700
g66
(dp3701
g74
I3
ssg75
g3695
sg68
(lp3702
S'/'
asbasbasbag61
(g77
g63
NtRp3703
(dp3704
g66
(dp3705
sg75
g3579
sg68
(lp3706
g61
(g82
g63
NtRp3707
(dp3708
g66
(dp3709
g86
g87
ssg75
g3703
sg68
(lp3710
g401
asbag61
(g82
g63
NtRp3711
(dp3712
g66
(dp3713
g93
g94
ssg75
g3703
sg68
(lp3714
S':'
asbag61
(g82
g63
NtRp3715
(dp3716
g66
(dp3717
sg75
g3703
sg68
(lp3718
g61
(g62
g63
NtRp3719
(dp3720
g66
(dp3721
g74
I3
ssg75
g3715
sg68
(lp3722
S''
asbasbasbag61
(g77
g63
NtRp3723
(dp3724
g66
(dp3725
sg75
g3579
sg68
(lp3726
g61
(g82
g63
NtRp3727
(dp3728
g66
(dp3729
g86
g87
ssg75
g3723
sg68
(lp3730
g422
asbag61
(g82
g63
NtRp3731
(dp3732
g66
(dp3733
g93
g94
ssg75
g3723
sg68
(lp3734
S':'
asbag61
(g82
g63
NtRp3735
(dp3736
g66
(dp3737
sg75
g3723
sg68
(lp3738
g61
(g62
g63
NtRp3739
(dp3740
g66
(dp3741
g74
I3
ssg75
g3735
sg68
(lp3742
S''
asbasbasbasbasbasbasbasbasbasbasbag61
(g77
g63
NtRp3743
(dp3744
g66
(dp3745
sg75
g3509
sg68
(lp3746
g61
(g82
g63
NtRp3747
(dp3748
g66
(dp3749
g86
g87
ssg75
g3743
sg68
(lp3750
S'delimiters'
p3751
asbag61
(g82
g63
NtRp3752
(dp3753
g66
(dp3754
g93
g94
ssg75
g3743
sg68
(lp3755
S':'
asbag61
(g82
g63
NtRp3756
(dp3757
g66
(dp3758
sg75
g3743
sg68
(lp3759
g61
(g62
g63
NtRp3760
(dp3761
g66
(dp3762
g74
I5
ssg75
g3756
sg68
(lp3763
g61
(g70
g63
NtRp3764
(dp3765
g66
(dp3766
g74
I4
ssg75
Nsg68
(lp3767
g61
(g77
g63
NtRp3768
(dp3769
g66
(dp3770
sg75
g3764
sg68
(lp3771
g61
(g82
g63
NtRp3772
(dp3773
g66
(dp3774
sg75
g3768
sg68
(lp3775
g61
(g62
g63
NtRp3776
(dp3777
g66
(dp3778
g74
I4
ssg75
g3772
sg68
(lp3779
S'{{'
p3780
asbasbasbag61
(g77
g63
NtRp3781
(dp3782
g66
(dp3783
sg75
g3764
sg68
(lp3784
g61
(g82
g63
NtRp3785
(dp3786
g66
(dp3787
sg75
g3781
sg68
(lp3788
g61
(g62
g63
NtRp3789
(dp3790
g66
(dp3791
g74
I4
ssg75
g3785
sg68
(lp3792
S'}}'
p3793
asbasbasbasbasbasbasbag61
(g77
g63
NtRp3794
(dp3795
g66
(dp3796
sg75
g3509
sg68
(lp3797
g61
(g82
g63
NtRp3798
(dp3799
g66
(dp3800
g86
g87
ssg75
g3794
sg68
(lp3801
S'files'
p3802
asbag61
(g82
g63
NtRp3803
(dp3804
g66
(dp3805
g93
g94
ssg75
g3794
sg68
(lp3806
S':'
asbag61
(g82
g63
NtRp3807
(dp3808
g66
(dp3809
sg75
g3794
sg68
(lp3810
g61
(g62
g63
NtRp3811
(dp3812
g66
(dp3813
g74
I5
ssg75
g3807
sg68
(lp3814
g61
(g70
g63
NtRp3815
(dp3816
g66
(dp3817
g74
I4
ssg75
Nsg68
(lp3818
sbasbasbasbag61
(g77
g63
NtRp3819
(dp3820
g66
(dp3821
sg75
g3509
sg68
(lp3822
g61
(g82
g63
NtRp3823
(dp3824
g66
(dp3825
g86
g87
ssg75
g3819
sg68
(lp3826
S'flash'
p3827
asbag61
(g82
g63
NtRp3828
(dp3829
g66
(dp3830
g93
g94
ssg75
g3819
sg68
(lp3831
S':'
asbag61
(g82
g63
NtRp3832
(dp3833
g66
(dp3834
sg75
g3819
sg68
(lp3835
g61
(g62
g63
NtRp3836
(dp3837
g66
(dp3838
g74
I5
ssg75
g3832
sg68
(lp3839
S''
asbasbasbag61
(g77
g63
NtRp3840
(dp3841
g66
(dp3842
sg75
g3509
sg68
(lp3843
g61
(g82
g63
NtRp3844
(dp3845
g66
(dp3846
g86
g87
ssg75
g3840
sg68
(lp3847
S'generic_patterns'
p3848
asbag61
(g82
g63
NtRp3849
(dp3850
g66
(dp3851
g93
g94
ssg75
g3840
sg68
(lp3852
S':'
asbag61
(g82
g63
NtRp3853
(dp3854
g66
(dp3855
sg75
g3840
sg68
(lp3856
g61
(g62
g63
NtRp3857
(dp3858
g66
(dp3859
g74
I5
ssg75
g3853
sg68
(lp3860
g61
(g70
g63
NtRp3861
(dp3862
g66
(dp3863
g74
I4
ssg75
Nsg68
(lp3864
g61
(g77
g63
NtRp3865
(dp3866
g66
(dp3867
sg75
g3861
sg68
(lp3868
g61
(g82
g63
NtRp3869
(dp3870
g66
(dp3871
sg75
g3865
sg68
(lp3872
g61
(g62
g63
NtRp3873
(dp3874
g66
(dp3875
g74
I4
ssg75
g3869
sg68
(lp3876
S'*'
asbasbasbasbasbasbasbag61
(g77
g63
NtRp3877
(dp3878
g66
(dp3879
sg75
g3509
sg68
(lp3880
g61
(g82
g63
NtRp3881
(dp3882
g66
(dp3883
g86
g87
ssg75
g3877
sg68
(lp3884
S'headers'
p3885
asbag61
(g82
g63
NtRp3886
(dp3887
g66
(dp3888
g93
g94
ssg75
g3877
sg68
(lp3889
S':'
asbag61
(g82
g63
NtRp3890
(dp3891
g66
(dp3892
sg75
g3877
sg68
(lp3893
g61
(g62
g63
NtRp3894
(dp3895
g66
(dp3896
g74
I5
ssg75
g3890
sg68
(lp3897
g61
(g70
g63
NtRp3898
(dp3899
g66
(dp3900
g74
I4
ssg75
Nsg68
(lp3901
g61
(g77
g63
NtRp3902
(dp3903
g66
(dp3904
sg75
g3898
sg68
(lp3905
g61
(g82
g63
NtRp3906
(dp3907
g66
(dp3908
g86
g87
ssg75
g3902
sg68
(lp3909
S'Cache-Control'
p3910
asbag61
(g82
g63
NtRp3911
(dp3912
g66
(dp3913
g93
g94
ssg75
g3902
sg68
(lp3914
S':'
asbag61
(g82
g63
NtRp3915
(dp3916
g66
(dp3917
sg75
g3902
sg68
(lp3918
g61
(g62
g63
NtRp3919
(dp3920
g66
(dp3921
g74
I4
ssg75
g3915
sg68
(lp3922
S'no-store, no-cache, must-revalidate, post-check=0, pre-check=0'
p3923
asbasbasbag61
(g77
g63
NtRp3924
(dp3925
g66
(dp3926
sg75
g3898
sg68
(lp3927
g61
(g82
g63
NtRp3928
(dp3929
g66
(dp3930
g86
g87
ssg75
g3924
sg68
(lp3931
S'Content-Type'
p3932
asbag61
(g82
g63
NtRp3933
(dp3934
g66
(dp3935
g93
g94
ssg75
g3924
sg68
(lp3936
S':'
asbag61
(g82
g63
NtRp3937
(dp3938
g66
(dp3939
sg75
g3924
sg68
(lp3940
g61
(g62
g63
NtRp3941
(dp3942
g66
(dp3943
g74
I4
ssg75
g3937
sg68
(lp3944
S'text/html; charset=utf-8'
p3945
asbasbasbag61
(g77
g63
NtRp3946
(dp3947
g66
(dp3948
sg75
g3898
sg68
(lp3949
g61
(g82
g63
NtRp3950
(dp3951
g66
(dp3952
g86
g87
ssg75
g3946
sg68
(lp3953
S'Expires'
p3954
asbag61
(g82
g63
NtRp3955
(dp3956
g66
(dp3957
g93
g94
ssg75
g3946
sg68
(lp3958
S':'
asbag61
(g82
g63
NtRp3959
(dp3960
g66
(dp3961
sg75
g3946
sg68
(lp3962
g61
(g62
g63
NtRp3963
(dp3964
g66
(dp3965
g74
I4
ssg75
g3959
sg68
(lp3966
S'Fri, 31 Aug 2012 15:56:33 GMT'
p3967
asbasbasbag61
(g77
g63
NtRp3968
(dp3969
g66
(dp3970
sg75
g3898
sg68
(lp3971
g61
(g82
g63
NtRp3972
(dp3973
g66
(dp3974
g86
g87
ssg75
g3968
sg68
(lp3975
S'Pragma'
p3976
asbag61
(g82
g63
NtRp3977
(dp3978
g66
(dp3979
g93
g94
ssg75
g3968
sg68
(lp3980
S':'
asbag61
(g82
g63
NtRp3981
(dp3982
g66
(dp3983
sg75
g3968
sg68
(lp3984
g61
(g62
g63
NtRp3985
(dp3986
g66
(dp3987
g74
I4
ssg75
g3981
sg68
(lp3988
S'no-cache'
p3989
asbasbasbag61
(g77
g63
NtRp3990
(dp3991
g66
(dp3992
sg75
g3898
sg68
(lp3993
g61
(g82
g63
NtRp3994
(dp3995
g66
(dp3996
g86
g87
ssg75
g3990
sg68
(lp3997
S'X-Powered-By'
p3998
asbag61
(g82
g63
NtRp3999
(dp4000
g66
(dp4001
g93
g94
ssg75
g3990
sg68
(lp4002
S':'
asbag61
(g82
g63
NtRp4003
(dp4004
g66
(dp4005
sg75
g3990
sg68
(lp4006
g61
(g62
g63
NtRp4007
(dp4008
g66
(dp4009
g74
I4
ssg75
g4003
sg68
(lp4010
S'web2py'
p4011
asbasbasbasbasbasbasbag61
(g77
g63
NtRp4012
(dp4013
g66
(dp4014
sg75
g3509
sg68
(lp4015
g61
(g82
g63
NtRp4016
(dp4017
g66
(dp4018
g86
g87
ssg75
g4012
sg68
(lp4019
S'menu'
p4020
asbag61
(g82
g63
NtRp4021
(dp4022
g66
(dp4023
g93
g94
ssg75
g4012
sg68
(lp4024
S':'
asbag61
(g82
g63
NtRp4025
(dp4026
g66
(dp4027
sg75
g4012
sg68
(lp4028
g61
(g62
g63
NtRp4029
(dp4030
g66
(dp4031
g74
I5
ssg75
g4025
sg68
(lp4032
g61
(g70
g63
NtRp4033
(dp4034
g66
(dp4035
g74
I4
ssg75
Nsg68
(lp4036
sbasbasbasbag61
(g77
g63
NtRp4037
(dp4038
g66
(dp4039
sg75
g3509
sg68
(lp4040
g61
(g82
g63
NtRp4041
(dp4042
g66
(dp4043
g86
g87
ssg75
g4037
sg68
(lp4044
S'meta'
p4045
asbag61
(g82
g63
NtRp4046
(dp4047
g66
(dp4048
g93
g94
ssg75
g4037
sg68
(lp4049
S':'
asbag61
(g82
g63
NtRp4050
(dp4051
g66
(dp4052
sg75
g4037
sg68
(lp4053
g61
(g62
g63
NtRp4054
(dp4055
g66
(dp4056
g74
I5
ssg75
g4050
sg68
(lp4057
g61
(g70
g63
NtRp4058
(dp4059
g66
(dp4060
g74
I4
ssg75
Nsg68
(lp4061
sbasbasbasbag61
(g77
g63
NtRp4062
(dp4063
g66
(dp4064
sg75
g3509
sg68
(lp4065
g61
(g82
g63
NtRp4066
(dp4067
g66
(dp4068
g86
g87
ssg75
g4062
sg68
(lp4069
S'postprocessing'
p4070
asbag61
(g82
g63
NtRp4071
(dp4072
g66
(dp4073
g93
g94
ssg75
g4062
sg68
(lp4074
S':'
asbag61
(g82
g63
NtRp4075
(dp4076
g66
(dp4077
sg75
g4062
sg68
(lp4078
g61
(g62
g63
NtRp4079
(dp4080
g66
(dp4081
g74
I5
ssg75
g4075
sg68
(lp4082
g61
(g70
g63
NtRp4083
(dp4084
g66
(dp4085
g74
I4
ssg75
Nsg68
(lp4086
sbasbasbasbag61
(g77
g63
NtRp4087
(dp4088
g66
(dp4089
sg75
g3509
sg68
(lp4090
g61
(g82
g63
NtRp4091
(dp4092
g66
(dp4093
g86
g87
ssg75
g4087
sg68
(lp4094
S'session_file'
p4095
asbag61
(g82
g63
NtRp4096
(dp4097
g66
(dp4098
g93
g94
ssg75
g4087
sg68
(lp4099
S':'
asbag61
(g82
g63
NtRp4100
(dp4101
g66
(dp4102
sg75
g4087
sg68
(lp4103
g61
(g62
g63
NtRp4104
(dp4105
g66
(dp4106
g74
I5
ssg75
g4100
sg68
(lp4107
S"<open file '/home/anu/Desktop/M12/ssad m12/web2py/applications/PhotoUpload/sessions/127.0.0.1-0f635432-6687-421f-a06a-9fc402d47a2b', mode 'rb+' at 0x93ebd88>"
p4108
asbasbasbag61
(g77
g63
NtRp4109
(dp4110
g66
(dp4111
sg75
g3509
sg68
(lp4112
g61
(g82
g63
NtRp4113
(dp4114
g66
(dp4115
g86
g87
ssg75
g4109
sg68
(lp4116
S'session_filename'
p4117
asbag61
(g82
g63
NtRp4118
(dp4119
g66
(dp4120
g93
g94
ssg75
g4109
sg68
(lp4121
S':'
asbag61
(g82
g63
NtRp4122
(dp4123
g66
(dp4124
sg75
g4109
sg68
(lp4125
g61
(g62
g63
NtRp4126
(dp4127
g66
(dp4128
g74
I5
ssg75
g4122
sg68
(lp4129
S'/home/anu/Desktop/M12/ssad m12/web2py/applications/PhotoUpload/sessions/127.0.0.1-0f635432-6687-421f-a06a-9fc402d47a2b'
p4130
asbasbasbag61
(g77
g63
NtRp4131
(dp4132
g66
(dp4133
sg75
g3509
sg68
(lp4134
g61
(g82
g63
NtRp4135
(dp4136
g66
(dp4137
g86
g87
ssg75
g4131
sg68
(lp4138
S'session_id'
p4139
asbag61
(g82
g63
NtRp4140
(dp4141
g66
(dp4142
g93
g94
ssg75
g4131
sg68
(lp4143
S':'
asbag61
(g82
g63
NtRp4144
(dp4145
g66
(dp4146
sg75
g4131
sg68
(lp4147
g61
(g62
g63
NtRp4148
(dp4149
g66
(dp4150
g74
I5
ssg75
g4144
sg68
(lp4151
S'127.0.0.1-0f635432-6687-421f-a06a-9fc402d47a2b'
p4152
asbasbasbag61
(g77
g63
NtRp4153
(dp4154
g66
(dp4155
sg75
g3509
sg68
(lp4156
g61
(g82
g63
NtRp4157
(dp4158
g66
(dp4159
g86
g87
ssg75
g4153
sg68
(lp4160
S'session_id_name'
p4161
asbag61
(g82
g63
NtRp4162
(dp4163
g66
(dp4164
g93
g94
ssg75
g4153
sg68
(lp4165
S':'
asbag61
(g82
g63
NtRp4166
(dp4167
g66
(dp4168
sg75
g4153
sg68
(lp4169
g61
(g62
g63
NtRp4170
(dp4171
g66
(dp4172
g74
I5
ssg75
g4166
sg68
(lp4173
g3566
asbasbasbag61
(g77
g63
NtRp4174
(dp4175
g66
(dp4176
sg75
g3509
sg68
(lp4177
g61
(g82
g63
NtRp4178
(dp4179
g66
(dp4180
g86
g87
ssg75
g4174
sg68
(lp4181
S'session_locked'
p4182
asbag61
(g82
g63
NtRp4183
(dp4184
g66
(dp4185
g93
g94
ssg75
g4174
sg68
(lp4186
S':'
asbag61
(g82
g63
NtRp4187
(dp4188
g66
(dp4189
sg75
g4174
sg68
(lp4190
g61
(g62
g63
NtRp4191
(dp4192
g66
(dp4193
g74
I5
ssg75
g4187
sg68
(lp4194
g1660
asbasbasbag61
(g77
g63
NtRp4195
(dp4196
g66
(dp4197
sg75
g3509
sg68
(lp4198
g61
(g82
g63
NtRp4199
(dp4200
g66
(dp4201
g86
g87
ssg75
g4195
sg68
(lp4202
S'session_new'
p4203
asbag61
(g82
g63
NtRp4204
(dp4205
g66
(dp4206
g93
g94
ssg75
g4195
sg68
(lp4207
S':'
asbag61
(g82
g63
NtRp4208
(dp4209
g66
(dp4210
sg75
g4195
sg68
(lp4211
g61
(g62
g63
NtRp4212
(dp4213
g66
(dp4214
g74
I5
ssg75
g4208
sg68
(lp4215
g104
asbasbasbag61
(g77
g63
NtRp4216
(dp4217
g66
(dp4218
sg75
g3509
sg68
(lp4219
g61
(g82
g63
NtRp4220
(dp4221
g66
(dp4222
g86
g87
ssg75
g4216
sg68
(lp4223
S'status'
p4224
asbag61
(g82
g63
NtRp4225
(dp4226
g66
(dp4227
g93
g94
ssg75
g4216
sg68
(lp4228
S':'
asbag61
(g82
g63
NtRp4229
(dp4230
g66
(dp4231
sg75
g4216
sg68
(lp4232
g61
(g62
g63
NtRp4233
(dp4234
g66
(dp4235
g74
I5
ssg75
g4229
sg68
(lp4236
S'200'
p4237
asbasbasbag61
(g77
g63
NtRp4238
(dp4239
g66
(dp4240
sg75
g3509
sg68
(lp4241
g61
(g82
g63
NtRp4242
(dp4243
g66
(dp4244
g86
g87
ssg75
g4238
sg68
(lp4245
g2324
asbag61
(g82
g63
NtRp4246
(dp4247
g66
(dp4248
g93
g94
ssg75
g4238
sg68
(lp4249
S':'
asbag61
(g82
g63
NtRp4250
(dp4251
g66
(dp4252
sg75
g4238
sg68
(lp4253
g61
(g62
g63
NtRp4254
(dp4255
g66
(dp4256
g74
I5
ssg75
g4250
sg68
(lp4257
g2337
asbasbasbag61
(g77
g63
NtRp4258
(dp4259
g66
(dp4260
sg75
g3509
sg68
(lp4261
g61
(g82
g63
NtRp4262
(dp4263
g66
(dp4264
g86
g87
ssg75
g4258
sg68
(lp4265
S'view'
p4266
asbag61
(g82
g63
NtRp4267
(dp4268
g66
(dp4269
g93
g94
ssg75
g4258
sg68
(lp4270
S':'
asbag61
(g82
g63
NtRp4271
(dp4272
g66
(dp4273
sg75
g4258
sg68
(lp4274
g61
(g62
g63
NtRp4275
(dp4276
g66
(dp4277
g74
I5
ssg75
g4271
sg68
(lp4278
S'default/index.html'
p4279
asbasbasbasbasbsS'locals'
p4280
(dp4281
S'a'
S"('CREATE TABLE like(\\n    id INTEGER PRIMARY KEY AUTOINCREMENT,\\n    Like CHAR(512)\\n);',)"
p4282
sS'self'
p4283
S'<gluon.dal.SQLiteAdapter object>'
p4284
sS'b'
g21
sS't0'
p4285
S'1346428593.805724'
p4286
sssS'traceback'
p4287
S'Traceback (most recent call last):\n  File "/home/anu/Desktop/M12/ssad m12/web2py/gluon/restricted.py", line 205, in restricted\n    exec ccode in environment\n  File "/home/anu/Desktop/M12/ssad m12/web2py/applications/PhotoUpload/models/db.py", line 99, in <module>\n    db.define_table(\'like\',Field(\'Like\') )\n  File "/home/anu/Desktop/M12/ssad m12/web2py/gluon/dal.py", line 6320, in define_table\n    polymodel=polymodel)\n  File "/home/anu/Desktop/M12/ssad m12/web2py/gluon/dal.py", line 719, in create_table\n    self.create_sequence_and_triggers(query,table)\n  File "/home/anu/Desktop/M12/ssad m12/web2py/gluon/dal.py", line 1381, in create_sequence_and_triggers\n    self.execute(query)\n  File "/home/anu/Desktop/M12/ssad m12/web2py/gluon/dal.py", line 1392, in execute\n    return self.log_execute(*a, **b)\n  File "/home/anu/Desktop/M12/ssad m12/web2py/gluon/dal.py", line 1386, in log_execute\n    ret = self.cursor.execute(*a, **b)\nOperationalError: table like already exists\n'
p4288
s.